((lp0
(I0
I0
I64
I64
tp1
a(I0
I64
I64
I128
tp2
a(I64
I64
I128
I128
tp3
a(I64
I0
I128
I64
tp4
a(I0
I128
I64
I192
tp5
a(I0
I192
I64
I256
tp6
a(I64
I192
I128
I256
tp7
a(I64
I128
I128
I192
tp8
a(I128
I128
I192
I192
tp9
a(I128
I192
I192
I256
tp10
a(I192
I192
I256
I256
tp11
a(I192
I128
I256
I192
tp12
a(I128
I0
I192
I64
tp13
a(I128
I64
I192
I128
tp14
a(I192
I64
I256
I128
tp15
a(I192
I0
I256
I64
tp16
a(I0
I256
I64
I320
tp17
a(I0
I320
I64
I384
tp18
a(I64
I320
I128
I384
tp19
a(I64
I256
I128
I320
tp20
a(I0
I384
I64
I448
tp21
a(I0
I448
I64
I512
tp22
a(I64
I448
I128
I512
tp23
a(I64
I384
I128
I448
tp24
a(I128
I384
I192
I448
tp25
a(I128
I448
I192
I512
tp26
a(I192
I448
I256
I512
tp27
a(I192
I384
I256
I448
tp28
a(I128
I256
I192
I320
tp29
a(I128
I320
I192
I384
tp30
a(I192
I320
I256
I384
tp31
a(I192
I256
I256
I320
tp32
a(I256
I256
I320
I320
tp33
a(I256
I320
I320
I384
tp34
a(I320
I320
I384
I384
tp35
a(I320
I256
I384
I320
tp36
a(I256
I384
I320
I448
tp37
a(I256
I448
I320
I512
tp38
a(I320
I448
I384
I512
tp39
a(I320
I384
I384
I448
tp40
a(I384
I384
I448
I448
tp41
a(I384
I448
I448
I512
tp42
a(I448
I448
I512
I512
tp43
a(I448
I384
I512
I448
tp44
a(I384
I256
I448
I320
tp45
a(I384
I320
I448
I384
tp46
a(I448
I320
I512
I384
tp47
a(I448
I256
I512
I320
tp48
a(I256
I0
I320
I64
tp49
a(I256
I64
I320
I128
tp50
a(I320
I64
I384
I128
tp51
a(I320
I0
I384
I64
tp52
a(I256
I128
I320
I192
tp53
a(I256
I192
I320
I256
tp54
a(I320
I192
I384
I256
tp55
a(I320
I128
I384
I192
tp56
a(I384
I128
I448
I192
tp57
a(I384
I192
I448
I256
tp58
a(I448
I192
I512
I256
tp59
a(I448
I128
I512
I192
tp60
a(I384
I0
I448
I64
tp61
a(I384
I64
I448
I128
tp62
a(I448
I64
I512
I128
tp63
a(I448
I0
I512
I64
tp64
a(I0
I512
I64
I576
tp65
a(I0
I576
I64
I640
tp66
a(I64
I576
I128
I640
tp67
a(I64
I512
I128
I576
tp68
a(I0
I640
I64
I704
tp69
a(I0
I704
I64
I768
tp70
a(I64
I704
I128
I768
tp71
a(I64
I640
I128
I704
tp72
a(I128
I640
I192
I704
tp73
a(I128
I704
I192
I768
tp74
a(I192
I704
I256
I768
tp75
a(I192
I640
I256
I704
tp76
a(I128
I512
I192
I576
tp77
a(I128
I576
I192
I640
tp78
a(I192
I576
I256
I640
tp79
a(I192
I512
I256
I576
tp80
a(I0
I768
I64
I832
tp81
a(I0
I832
I64
I896
tp82
a(I64
I832
I128
I896
tp83
a(I64
I768
I128
I832
tp84
a(I0
I896
I64
I960
tp85
a(I0
I960
I64
I1024
tp86
a(I64
I960
I128
I1024
tp87
a(I64
I896
I128
I960
tp88
a(I128
I896
I192
I960
tp89
a(I128
I960
I192
I1024
tp90
a(I192
I960
I256
I1024
tp91
a(I192
I896
I256
I960
tp92
a(I128
I768
I192
I832
tp93
a(I128
I832
I192
I896
tp94
a(I192
I832
I256
I896
tp95
a(I192
I768
I256
I832
tp96
a(I256
I768
I320
I832
tp97
a(I256
I832
I320
I896
tp98
a(I320
I832
I384
I896
tp99
a(I320
I768
I384
I832
tp100
a(I256
I896
I320
I960
tp101
a(I256
I960
I320
I1024
tp102
a(I320
I960
I384
I1024
tp103
a(I320
I896
I384
I960
tp104
a(I384
I896
I448
I960
tp105
a(I384
I960
I448
I1024
tp106
a(I448
I960
I512
I1024
tp107
a(I448
I896
I512
I960
tp108
a(I384
I768
I448
I832
tp109
a(I384
I832
I448
I896
tp110
a(I448
I832
I512
I896
tp111
a(I448
I768
I512
I832
tp112
a(I256
I512
I320
I576
tp113
a(I256
I576
I320
I640
tp114
a(I320
I576
I384
I640
tp115
a(I320
I512
I384
I576
tp116
a(I256
I640
I320
I704
tp117
a(I256
I704
I320
I768
tp118
a(I320
I704
I384
I768
tp119
a(I320
I640
I384
I704
tp120
a(I384
I640
I448
I704
tp121
a(I384
I704
I448
I768
tp122
a(I448
I704
I512
I768
tp123
a(I448
I640
I512
I704
tp124
a(I384
I512
I448
I576
tp125
a(I384
I576
I448
I640
tp126
a(I448
I576
I512
I640
tp127
a(I448
I512
I512
I576
tp128
a(I512
I512
I576
I576
tp129
a(I512
I576
I576
I640
tp130
a(I576
I576
I640
I640
tp131
a(I576
I512
I640
I576
tp132
a(I512
I640
I576
I704
tp133
a(I512
I704
I576
I768
tp134
a(I576
I704
I640
I768
tp135
a(I576
I640
I640
I704
tp136
a(I640
I640
I704
I704
tp137
a(I640
I704
I704
I768
tp138
a(I704
I704
I768
I768
tp139
a(I704
I640
I768
I704
tp140
a(I640
I512
I704
I576
tp141
a(I640
I576
I704
I640
tp142
a(I704
I576
I768
I640
tp143
a(I704
I512
I768
I576
tp144
a(I512
I768
I576
I832
tp145
a(I512
I832
I576
I896
tp146
a(I576
I832
I640
I896
tp147
a(I576
I768
I640
I832
tp148
a(I512
I896
I576
I960
tp149
a(I512
I960
I576
I1024
tp150
a(I576
I960
I640
I1024
tp151
a(I576
I896
I640
I960
tp152
a(I640
I896
I704
I960
tp153
a(I640
I960
I704
I1024
tp154
a(I704
I960
I768
I1024
tp155
a(I704
I896
I768
I960
tp156
a(I640
I768
I704
I832
tp157
a(I640
I832
I704
I896
tp158
a(I704
I832
I768
I896
tp159
a(I704
I768
I768
I832
tp160
a(I768
I768
I832
I832
tp161
a(I768
I832
I832
I896
tp162
a(I832
I832
I896
I896
tp163
a(I832
I768
I896
I832
tp164
a(I768
I896
I832
I960
tp165
a(I768
I960
I832
I1024
tp166
a(I832
I960
I896
I1024
tp167
a(I832
I896
I896
I960
tp168
a(I896
I896
I960
I960
tp169
a(I896
I960
I960
I1024
tp170
a(I960
I960
I1024
I1024
tp171
a(I960
I896
I1024
I960
tp172
a(I896
I768
I960
I832
tp173
a(I896
I832
I960
I896
tp174
a(I960
I832
I1024
I896
tp175
a(I960
I768
I1024
I832
tp176
a(I768
I512
I832
I576
tp177
a(I768
I576
I832
I640
tp178
a(I832
I576
I896
I640
tp179
a(I832
I512
I896
I576
tp180
a(I768
I640
I832
I704
tp181
a(I768
I704
I832
I768
tp182
a(I832
I704
I896
I768
tp183
a(I832
I640
I896
I704
tp184
a(I896
I640
I960
I704
tp185
a(I896
I704
I960
I768
tp186
a(I960
I704
I1024
I768
tp187
a(I960
I640
I1024
I704
tp188
a(I896
I512
I960
I576
tp189
a(I896
I576
I960
I640
tp190
a(I960
I576
I1024
I640
tp191
a(I960
I512
I1024
I576
tp192
a(I512
I0
I576
I64
tp193
a(I512
I64
I576
I128
tp194
a(I576
I64
I640
I128
tp195
a(I576
I0
I640
I64
tp196
a(I512
I128
I576
I192
tp197
a(I512
I192
I576
I256
tp198
a(I576
I192
I640
I256
tp199
a(I576
I128
I640
I192
tp200
a(I640
I128
I704
I192
tp201
a(I640
I192
I704
I256
tp202
a(I704
I192
I768
I256
tp203
a(I704
I128
I768
I192
tp204
a(I640
I0
I704
I64
tp205
a(I640
I64
I704
I128
tp206
a(I704
I64
I768
I128
tp207
a(I704
I0
I768
I64
tp208
a(I512
I256
I576
I320
tp209
a(I512
I320
I576
I384
tp210
a(I576
I320
I640
I384
tp211
a(I576
I256
I640
I320
tp212
a(I512
I384
I576
I448
tp213
a(I512
I448
I576
I512
tp214
a(I576
I448
I640
I512
tp215
a(I576
I384
I640
I448
tp216
a(I640
I384
I704
I448
tp217
a(I640
I448
I704
I512
tp218
a(I704
I448
I768
I512
tp219
a(I704
I384
I768
I448
tp220
a(I640
I256
I704
I320
tp221
a(I640
I320
I704
I384
tp222
a(I704
I320
I768
I384
tp223
a(I704
I256
I768
I320
tp224
a(I768
I256
I832
I320
tp225
a(I768
I320
I832
I384
tp226
a(I832
I320
I896
I384
tp227
a(I832
I256
I896
I320
tp228
a(I768
I384
I832
I448
tp229
a(I768
I448
I832
I512
tp230
a(I832
I448
I896
I512
tp231
a(I832
I384
I896
I448
tp232
a(I896
I384
I960
I448
tp233
a(I896
I448
I960
I512
tp234
a(I960
I448
I1024
I512
tp235
a(I960
I384
I1024
I448
tp236
a(I896
I256
I960
I320
tp237
a(I896
I320
I960
I384
tp238
a(I960
I320
I1024
I384
tp239
a(I960
I256
I1024
I320
tp240
a(I768
I0
I832
I64
tp241
a(I768
I64
I832
I128
tp242
a(I832
I64
I896
I128
tp243
a(I832
I0
I896
I64
tp244
a(I768
I128
I832
I192
tp245
a(I768
I192
I832
I256
tp246
a(I832
I192
I896
I256
tp247
a(I832
I128
I896
I192
tp248
a(I896
I128
I960
I192
tp249
a(I896
I192
I960
I256
tp250
a(I960
I192
I1024
I256
tp251
a(I960
I128
I1024
I192
tp252
a(I896
I0
I960
I64
tp253
a(I896
I64
I960
I128
tp254
a(I960
I64
I1024
I128
tp255
a(I960
I0
I1024
I64
tp256
a(lp257
I85
aI86
aI87
aI88
aI89
aI90
aI91
aI92
aI93
aI94
aI95
aI96
aI97
aI98
aI99
aI100
aI101
aI102
aI103
aI104
aI105
aI106
aI107
aI108
aI109
aI110
aI111
aI112
aI113
aI114
aI115
aI116
aI117
aI118
aI119
aI120
aI121
aI122
aI123
aI124
aI125
aI126
aI127
aI128
aI129
aI130
aI131
aI132
aI133
aI134
aI135
aI136
aI137
aI138
aI139
aI140
aI141
aI142
aI143
aI144
aI145
aI146
aI147
aI148
aI149
aI150
aI151
aI152
aI153
aI154
aI155
aI156
aI157
aI158
aI159
aI160
aI161
aI162
aI163
aI164
aI165
aI166
aI167
aI168
aI169
aI170
aI171
aI172
aI173
aI174
aI175
aI176
aI177
aI178
aI179
aI180
aI181
aI182
aI183
aI184
aI185
aI186
aI187
aI188
aI189
aI190
aI191
aI192
aI193
aI194
aI195
aI196
aI197
aI198
aI199
aI200
aI201
aI202
aI203
aI204
aI205
aI206
aI207
aI208
aI209
aI210
aI211
aI212
aI213
aI214
aI215
aI216
aI217
aI218
aI219
aI220
aI221
aI222
aI223
aI224
aI225
aI226
aI227
aI228
aI229
aI230
aI231
aI232
aI233
aI234
aI235
aI236
aI237
aI238
aI239
aI240
aI241
aI242
aI243
aI244
aI245
aI246
aI247
aI248
aI249
aI250
aI251
aI252
aI253
aI254
aI255
aI256
aI257
aI258
aI259
aI260
aI261
aI262
aI263
aI264
aI265
aI266
aI267
aI268
aI269
aI270
aI271
aI272
aI273
aI274
aI275
aI276
aI277
aI278
aI279
aI280
aI281
aI282
aI283
aI284
aI285
aI286
aI287
aI288
aI289
aI290
aI291
aI292
aI293
aI294
aI295
aI296
aI297
aI298
aI299
aI300
aI301
aI302
aI303
aI304
aI305
aI306
aI307
aI308
aI309
aI310
aI311
aI312
aI313
aI314
aI315
aI316
aI317
aI318
aI319
aI320
aI321
aI322
aI323
aI324
aI325
aI326
aI327
aI328
aI329
aI330
aI331
aI332
aI333
aI334
aI335
aI336
aI337
aI338
aI339
aI340
atp258
.