(lp0
(i__main__
CNode
p1
(dp2
S'index'
p3
I21
sS'rect_prop'
p4
(lp5
(lp6
F1.2329104305595529
aF162.0433015020293
aF226.9304157781996
aF6.307278406218
aF0.6530502703822452
aF0.9145004388060123
aF301.272973792246
aF1.7790522884796074e-05
aF0.022452622628304737
aa(lp7
F1.1762238169125685
aF169.89478472066773
aF237.9090510955736
aF6.350171406667967
aF0.6540360796365317
aF0.9153137255883204
aF308.3802823367124
aF1.84949239390191e-05
aF0.02343581301038386
aa(lp8
F1.367923873507618
aF162.02122063197498
aF226.90056203306338
aF6.2802202793021795
aF0.6530855682132413
aF0.914713218843281
aF301.26380314446374
aF1.7792535471704217e-05
aF0.02245736487322035
aa(lp9
F1.3050031933056034
aF169.87410871143453
aF237.88160513387174
aF6.3231226911934995
aF0.6540668354095678
aF0.9155029397674208
aF308.37422897237474
aF1.8496905198604794e-05
aF0.023440335699744335
aasS'parent'
p10
(i__main__
CNode
p11
(dp12
g3
I5
sg4
(lp13
(lp14
F1.2329104305595529
aF162.0433015020293
aF226.9304157781996
aF6.307278406218
aF0.6530502703822452
aF0.9145004388060123
aF301.272973792246
aF1.7790522884796074e-05
aF0.022452622628304737
aa(lp15
F1.1204333782311766
aF178.41443795587273
aF249.81538115723976
aF6.394523718355301
aF0.6553595575909421
aF0.9164789480654936
aF315.8727346884071
aF1.9244349688530788e-05
aF0.024488150157624428
aa(lp16
F1.5029696524268779
aF161.9991360541038
aF226.87070537858392
aF6.2557001461043695
aF0.6531208680147412
aF0.9149261173387274
aF301.2546454035007
aF1.7794548560022025e-05
aF0.02246210856527878
aa(lp17
F1.3657500846090969
aF178.37578009088836
aF249.7651221811774
aF6.342981558831675
aF0.6554132270210936
aF0.9168147377353398
aF315.86638547580276
aF1.9248241738477613e-05
aF0.024496764747838636
aasg10
(i__main__
CNode
p18
(dp19
g3
I1
sg4
(lp20
(lp21
F1.2329104305595529
aF162.0433015020293
aF226.9304157781996
aF6.307278406218
aF0.6530502703822452
aF0.9145004388060123
aF301.272973792246
aF1.7790522884796074e-05
aF0.022452622628304737
aa(lp22
F1.0268094046660616
aF194.85229043458108
aF272.7635363157167
aF6.47439180202825
aF0.6586778873129832
aF0.9195561740914121
aF329.71995025863924
aF2.0647851883215303e-05
aF0.02647634805485789
aa(lp23
F1.7731582444688878
aF161.95495577563784
aF226.81098335170222
aF6.212630318437654
aF0.6531914735006509
aF0.9153522698241177
aF301.2363687130386
aF1.7798576248997824e-05
aF0.02247160030174657
aa(lp24
F1.4763579718390654
aF194.78373358991112
aF272.67812112571124
aF6.379868604332815
aF0.6587630351930509
aF0.9200995760759202
aF329.7248095589918
aF2.0655357068002164e-05
aF0.026492131393305866
aasg10
(i__main__
CNode
p25
(dp26
g3
I0
sg4
(lp27
(lp28
F1.2329104305595529
aF162.0433015020293
aF226.9304157781996
aF6.307278406218
aF0.6530502703822452
aF0.9145004388060123
aF301.272973792246
aF1.7790522884796074e-05
aF0.022452622628304737
aa(lp29
F0.8798494446205319
aF228.0322821562554
aF318.95692896841894
aF6.6167883046825775
aF0.6682764762006296
aF0.9288342222455881
aF355.46078998319854
aF2.332013698888015e-05
aF0.03032441286648283
aa(lp30
F2.3139237483388646
aF161.86655073307756
aF226.69150449729867
aF6.143238379218014
aF0.6533327078032973
aF0.9162059976058604
aF301.1999709956214
aF1.7806637733226388e-05
aF0.022490601258522723
aa(lp31
F1.6499837750351556
aF227.9213374925641
aF318.8313223479024
aF6.453138321718336
aF0.6683932442985706
aF0.9295858746849666
aF355.5164517300261
aF2.3334047881815992e-05
aF0.03035144738819429
aasg10
NsS'depth'
p32
I0
sS'type'
p33
I0
sS'children'
p34
(lp35
g18
a(i__main__
CNode
p36
(dp37
g3
I2
sg4
(lp38
(lp39
F1.7731582444688878
aF161.95495577563784
aF226.81098335170222
aF6.212630318437654
aF0.6531914735006509
aF0.9153522698241177
aF301.2363687130386
aF1.7798576248997824e-05
aF0.02247160030174657
aa(lp40
F1.4763579718390654
aF194.78373358991112
aF272.67812112571124
aF6.379868604332815
aF0.6587630351930509
aF0.9200995760759202
aF329.7248095589918
aF2.0655357068002164e-05
aF0.026492131393305866
aa(lp41
F2.3139237483388646
aF161.86655073307756
aF226.69150449729867
aF6.143238379218014
aF0.6533327078032973
aF0.9162059976058604
aF301.1999709956214
aF1.7806637733226388e-05
aF0.022490601258522723
aa(lp42
F1.926100629957602
aF194.71516116040746
aF272.5927121392999
aF6.310601750872058
aF0.6588481539166906
aF0.9206434852061881
aF329.7298357540239
aF2.0662865705002973e-05
aF0.026507922674902994
aasg10
g25
sg32
I1
sg33
I1
sg34
(lp43
(i__main__
CNode
p44
(dp45
g3
I9
sg4
(lp46
(lp47
F1.7731582444688878
aF161.95495577563784
aF226.81098335170222
aF6.212630318437654
aF0.6531914735006509
aF0.9153522698241177
aF301.2363687130386
aF1.7798576248997824e-05
aF0.02247160030174657
aa(lp48
F1.6111464235478934
aF178.3371143601151
aF249.71486024292523
aF6.299947864961813
aF0.6554668927552831
aF0.9171507725574626
aF315.86008374080507
aF1.925213511277871e-05
aF0.02450538280974292
aa(lp49
F2.0434762590767703
aF161.91076066811706
aF226.75124971782236
aF6.175648122880554
aF0.6532620867826636
aF0.9157788965009022
aF301.21814386298047
aF1.7802605967970487e-05
aF0.022481097859169956
aa(lp50
F1.856622382911587
aF178.2984407702499
aF249.66459536341563
aF6.2630018364112
aF0.6555205547549536
aF0.9174870524272699
aF315.85382957458444
aF1.9256029822258964e-05
aF0.02451400435532656
aasg10
g36
sg32
I2
sg33
I1
sg34
(lp51
(i__main__
CNode
p52
(dp53
g3
I37
sg4
(lp54
(lp55
F1.7731582444688878
aF161.95495577563784
aF226.81098335170222
aF6.212630318437654
aF0.6531914735006509
aF0.9153522698241177
aF301.2363687130386
aF1.7798576248997824e-05
aF0.02247160030174657
aa(lp56
F1.6914950463016034
aF169.8120642067118
aF237.79925710535113
aF6.255560993219239
aF0.6541591038375587
aF0.9160710993363982
aF308.35614392905046
aF1.850285144756054e-05
aF0.02345391057437474
aa(lp57
F1.9083010706894579
aF161.9328600754145
aF226.78111798436692
aF6.1934880823036735
aF0.6532267791707329
aF0.9155655238737412
aF301.2272497990697
aF1.780059085371757e-05
aF0.022476348351518294
aa(lp58
F1.8203769105558913
aF169.79137721488138
aF237.7718043903778
aF6.236428187572992
aF0.6541898603296893
aF0.9162606582089511
aF308.35014064572084
aF1.8504834359476855e-05
aF0.023458437808166963
aasg10
g44
sg32
I3
sg33
I2
sg34
(lp59
NaNaNaNasS'rect'
p60
(I250
F115000.0
I262
F123750.0
tp61
sba(i__main__
CNode
p62
(dp63
g3
I38
sg4
(lp64
(lp65
F1.9083010706894579
aF161.9328600754145
aF226.78111798436692
aF6.1934880823036735
aF0.6532267791707329
aF0.9155655238737412
aF301.2272497990697
aF1.780059085371757e-05
aF0.022476348351518294
aa(lp66
F1.8203769105558913
aF169.79137721488138
aF237.7718043903778
aF6.236428187572992
aF0.6541898603296893
aF0.9162606582089511
aF308.35014064572084
aF1.8504834359476855e-05
aF0.023458437808166963
aa(lp67
F2.0434762590767703
aF161.91076066811706
aF226.75124971782236
aF6.175648122880554
aF0.6532620867826636
aF0.9157788965009022
aF301.21814386298047
aF1.7802605967970487e-05
aF0.022481097859169956
aa(lp68
F1.9492844007191283
aF169.77068747897172
aF237.74434999385062
aF6.218597663400869
aF0.6542206169864577
aF0.9164503032588557
aF308.3441499185689
aF1.8506817688628605e-05
aF0.023462966183054972
aasg10
g44
sg32
I3
sg33
I2
sg34
(lp69
NaNaNaNasg60
(I250
F123750.0
I262
F132500.0
tp70
sba(i__main__
CNode
p71
(dp72
g3
I39
sg4
(lp73
(lp74
F1.8203769105558913
aF169.79137721488138
aF237.7718043903778
aF6.236428187572992
aF0.6541898603296893
aF0.9162606582089511
aF308.35014064572084
aF1.8504834359476855e-05
aF0.023458437808166963
aa(lp75
F1.7338744514443802
aF178.31777854714917
aF249.6897281695176
aF6.280823708179704
aF0.655493724224345
aF0.9173188818679936
aF315.8569507058981
aF1.925408229994421e-05
aF0.024509693146335488
aa(lp76
F1.9492844007191283
aF169.77068747897172
aF237.74434999385062
aF6.218597663400869
aF0.6542206169864577
aF0.9164503032588557
aF308.3441499185689
aF1.8506817688628605e-05
aF0.023462966183054972
aa(lp77
F1.856622382911587
aF178.2984407702499
aF249.66459536341563
aF6.2630018364112
aF0.6555205547549536
aF0.9174870524272699
aF315.85382957458444
aF1.9256029822258964e-05
aF0.02451400435532656
aasg10
g44
sg32
I3
sg33
I2
sg34
(lp78
NaNaNaNasg60
(I262
F123750.0
I275
F132500.0
tp79
sba(i__main__
CNode
p80
(dp81
g3
I40
sg4
(lp82
(lp83
F1.6914950463016034
aF169.8120642067118
aF237.79925710535113
aF6.255560993219239
aF0.6541591038375587
aF0.9160710993363982
aF308.35614392905046
aF1.850285144756054e-05
aF0.02345391057437474
aa(lp84
F1.6111464235478934
aF178.3371143601151
aF249.71486024292523
aF6.299947864961813
aF0.6554668927552831
aF0.9171507725574626
aF315.86008374080507
aF1.925213511277871e-05
aF0.02450538280974292
aa(lp85
F1.8203769105558913
aF169.79137721488138
aF237.7718043903778
aF6.236428187572992
aF0.6541898603296893
aF0.9162606582089511
aF308.35014064572084
aF1.8504834359476855e-05
aF0.023458437808166963
aa(lp86
F1.7338744514443802
aF178.31777854714917
aF249.6897281695176
aF6.280823708179704
aF0.655493724224345
aF0.9173188818679936
aF315.8569507058981
aF1.925408229994421e-05
aF0.024509693146335488
aasg10
g44
sg32
I3
sg33
I2
sg34
(lp87
NaNaNaNasg60
(I262
F115000.0
I275
F123750.0
tp88
sbasg60
(I250
F115000.0
I275
F132500.0
tp89
sba(i__main__
CNode
p90
(dp91
g3
I10
sg4
(lp92
(lp93
F2.0434762590767703
aF161.91076066811706
aF226.75124971782236
aF6.175648122880554
aF0.6532620867826636
aF0.9157788965009022
aF301.21814386298047
aF1.7802605967970487e-05
aF0.022481097859169956
aa(lp94
F1.856622382911587
aF178.2984407702499
aF249.66459536341563
aF6.2630018364112
aF0.6555205547549536
aF0.9174870524272699
aF315.85382957458444
aF1.9256029822258964e-05
aF0.02451400435532656
aa(lp95
F2.3139237483388646
aF161.86655073307756
aF226.69150449729867
aF6.143238379218014
aF0.6533327078032973
aF0.9162059976058604
aF301.1999709956214
aF1.7806637733226388e-05
aF0.022490601258522723
aa(lp96
F2.102177950327136
aF178.25975932802157
aF249.6143275636257
aF6.230628292967405
aF0.655574212981498
aF0.9178235772388665
aF315.84762306834557
aF1.925992587776063e-05
aF0.02452262939634437
aasg10
g36
sg32
I2
sg33
I1
sg34
(lp97
(i__main__
CNode
p98
(dp99
g3
I41
sg4
(lp100
(lp101
F2.0434762590767703
aF161.91076066811706
aF226.75124971782236
aF6.175648122880554
aF0.6532620867826636
aF0.9157788965009022
aF301.21814386298047
aF1.7802605967970487e-05
aF0.022481097859169956
aa(lp102
F1.9492844007191283
aF169.77068747897172
aF237.74434999385062
aF6.218597663400869
aF0.6542206169864577
aF0.9164503032588557
aF308.3441499185689
aF1.8506817688628605e-05
aF0.023462966183054972
aa(lp103
F2.178683816132391
aF161.88865755393914
aF226.72137855461546
aF6.158943754861663
aF0.6532973963292521
aF0.9159923877351369
aF301.2090509225634
aF1.7804621593793596e-05
aF0.022485848827309498
aa(lp104
F2.078217518333621
aF169.7499949996161
aF237.71689391848318
aF6.201902735396892
aF0.6542513738017975
aF0.9166400344874964
aF308.3381717619761
aF1.85088014366802e-05
aF0.023467495700992307
aasg10
g90
sg32
I3
sg33
I2
sg34
(lp105
NaNaNaNasg60
(I250
F132500.0
I262
F141250.0
tp106
sba(i__main__
CNode
p107
(dp108
g3
I42
sg4
(lp109
(lp110
F2.178683816132391
aF161.88865755393914
aF226.72137855461546
aF6.158943754861663
aF0.6532973963292521
aF0.9159923877351369
aF301.2090509225634
aF1.7804621593793596e-05
aF0.022485848827309498
aa(lp111
F2.078217518333621
aF169.7499949996161
aF237.71689391848318
aF6.201902735396892
aF0.6542513738017975
aF0.9166400344874964
aF308.3381717619761
aF1.85088014366802e-05
aF0.023467495700992307
aa(lp112
F2.3139237483388646
aF161.86655073307756
aF226.69150449729867
aF6.143238379218014
aF0.6533327078032973
aF0.9162059976058604
aF301.1999709956214
aF1.7806637733226388e-05
aF0.022490601258522723
aa(lp113
F2.2071762649240463
aF169.72929977745036
aF237.6894361669932
aF6.186206804532727
aF0.6542821307696359
aF0.9168298518961524
aF308.3322061903296
aF1.851078560529772e-05
aF0.023472026363916695
aasg10
g90
sg32
I3
sg33
I2
sg34
(lp114
NaNaNaNasg60
(I250
F141250.0
I262
F150000.0
tp115
sba(i__main__
CNode
p116
(dp117
g3
I43
sg4
(lp118
(lp119
F2.078217518333621
aF169.7499949996161
aF237.71689391848318
aF6.201902735396892
aF0.6542513738017975
aF0.9166400344874964
aF308.3381717619761
aF1.85088014366802e-05
aF0.023467495700992307
aa(lp120
F1.9793902163954704
aF178.27910103025937
aF249.63946182724283
aF6.246315564349992
aF0.6555473843422815
aF0.9176552842220141
aF315.8507203582657
aF1.92579776810788e-05
aF0.02451831643817885
aa(lp121
F2.2071762649240463
aF169.72929977745036
aF237.6894361669932
aF6.186206804532727
aF0.6542821307696359
aF0.9168298518961524
aF308.3322061903296
aF1.851078560529772e-05
aF0.023472026363916695
aa(lp122
F2.102177950327136
aF178.25975932802157
aF249.6143275636257
aF6.230628292967405
aF0.655574212981498
aF0.9178235772388665
aF315.84762306834557
aF1.925992587776063e-05
aF0.02452262939634437
aasg10
g90
sg32
I3
sg33
I2
sg34
(lp123
NaNaNaNasg60
(I262
F141250.0
I275
F150000.0
tp124
sba(i__main__
CNode
p125
(dp126
g3
I44
sg4
(lp127
(lp128
F1.9492844007191283
aF169.77068747897172
aF237.74434999385062
aF6.218597663400869
aF0.6542206169864577
aF0.9164503032588557
aF308.3441499185689
aF1.8506817688628605e-05
aF0.023462966183054972
aa(lp129
F1.856622382911587
aF178.2984407702499
aF249.66459536341563
aF6.2630018364112
aF0.6555205547549536
aF0.9174870524272699
aF315.85382957458444
aF1.9256029822258964e-05
aF0.02451400435532656
aa(lp130
F2.078217518333621
aF169.7499949996161
aF237.71689391848318
aF6.201902735396892
aF0.6542513738017975
aF0.9166400344874964
aF308.3381717619761
aF1.85088014366802e-05
aF0.023467495700992307
aa(lp131
F1.9793902163954704
aF178.27910103025937
aF249.63946182724283
aF6.246315564349992
aF0.6555473843422815
aF0.9176552842220141
aF315.8507203582657
aF1.92579776810788e-05
aF0.02451831643817885
aasg10
g90
sg32
I3
sg33
I2
sg34
(lp132
NaNaNaNasg60
(I262
F132500.0
I275
F141250.0
tp133
sbasg60
(I250
F132500.0
I275
F150000.0
tp134
sba(i__main__
CNode
p135
(dp136
g3
I11
sg4
(lp137
(lp138
F1.856622382911587
aF178.2984407702499
aF249.66459536341563
aF6.2630018364112
aF0.6555205547549536
aF0.9174870524272699
aF315.85382957458444
aF1.9256029822258964e-05
aF0.02451400435532656
aa(lp139
F1.701205055357891
aF194.74944931974449
aF272.6354158484093
aF6.34294892720095
aF0.6588055982112009
aF0.920371467330608
aF329.72730176536527
aF2.065911095118968e-05
aF0.026500026037683772
aa(lp140
F2.102177950327136
aF178.25975932802157
aF249.6143275636257
aF6.230628292967405
aF0.655574212981498
aF0.9178235772388665
aF315.84762306834557
aF1.925992587776063e-05
aF0.02452262939634437
aa(lp141
F1.926100629957602
aF194.71516116040746
aF272.5927121392999
aF6.310601750872058
aF0.6588481539166906
aF0.9206434852061881
aF329.7298357540239
aF2.0662865705002973e-05
aF0.026507922674902994
aasg10
g36
sg32
I2
sg33
I1
sg34
(lp142
(i__main__
CNode
p143
(dp144
g3
I45
sg4
(lp145
(lp146
F1.856622382911587
aF178.2984407702499
aF249.66459536341563
aF6.2630018364112
aF0.6555205547549536
aF0.9174870524272699
aF315.85382957458444
aF1.9256029822258964e-05
aF0.02451400435532656
aa(lp147
F1.7786121413223903
aF186.18532365322127
aF260.68161034869314
aF6.3022140669618905
aF0.6569679009310698
aF0.9187270703850116
aF322.6028892170502
aF1.9935521625129654e-05
aF0.02547293295966689
aa(lp148
F1.9793902163954704
aF178.27910103025937
aF249.63946182724283
aF6.246315564349992
aF0.6555473843422815
aF0.9176552842220141
aF315.8507203582657
aF1.92579776810788e-05
aF0.02451831643817885
aa(lp149
F1.8961947124155807
aF186.1670972753795
aF260.6583924335968
aF6.285534615639934
aF0.656991796149068
aF0.9188785476261975
aF322.6020435716764
aF1.993743570488672e-05
aF0.02547706225420653
aasg10
g135
sg32
I3
sg33
I2
sg34
(lp150
NaNaNaNasg60
(I275
F132500.0
I287
F141250.0
tp151
sba(i__main__
CNode
p152
(dp153
g3
I46
sg4
(lp154
(lp155
F1.9793902163954704
aF178.27910103025937
aF249.63946182724283
aF6.246315564349992
aF0.6555473843422815
aF0.9176552842220141
aF315.8507203582657
aF1.92579776810788e-05
aF0.02451831643817885
aa(lp156
F1.8961947124155807
aF186.1670972753795
aF260.6583924335968
aF6.285534615639934
aF0.656991796149068
aF0.9188785476261975
aF322.6020435716764
aF1.993743570488672e-05
aF0.02547706225420653
aa(lp157
F2.102177950327136
aF178.25975932802157
aF249.6143275636257
aF6.230628292967405
aF0.655574212981498
aF0.9178235772388665
aF315.84762306834557
aF1.925992587776063e-05
aF0.02452262939634437
aa(lp158
F2.0137930068513454
aF186.14886947850616
aF260.63517442130245
aF6.269854167242321
aF0.6570156898555058
aF0.9190300695425905
aF322.6012091594289
aF1.9939350059622284e-05
aF0.025481192225618687
aasg10
g135
sg32
I3
sg33
I2
sg34
(lp159
NaNaNaNasg60
(I275
F141250.0
I287
F150000.0
tp160
sba(i__main__
CNode
p161
(dp162
g3
I47
sg4
(lp163
(lp164
F1.8961947124155807
aF186.1670972753795
aF260.6583924335968
aF6.285534615639934
aF0.656991796149068
aF0.9188785476261975
aF322.6020435716764
aF1.993743570488672e-05
aF0.02547706225420653
aa(lp165
F1.8136467832594487
aF194.7323057257814
aF272.6140637967484
aF6.326275836735975
aF0.6588268769795007
aF0.9205074604511717
aF329.7285635332463
aF2.0660988218794412e-05
aF0.0265039741067511
aa(lp166
F2.0137930068513454
aF186.14886947850616
aF260.63517442130245
aF6.269854167242321
aF0.6570156898555058
aF0.9190300695425905
aF322.6012091594289
aF1.9939350059622284e-05
aF0.025481192225618687
aa(lp167
F1.926100629957602
aF194.71516116040746
aF272.5927121392999
aF6.310601750872058
aF0.6588481539166906
aF0.9206434852061881
aF329.7298357540239
aF2.0662865705002973e-05
aF0.026507922674902994
aasg10
g135
sg32
I3
sg33
I2
sg34
(lp168
NaNaNaNasg60
(I287
F141250.0
I300
F150000.0
tp169
sba(i__main__
CNode
p170
(dp171
g3
I48
sg4
(lp172
(lp173
F1.7786121413223903
aF186.18532365322127
aF260.68161034869314
aF6.3022140669618905
aF0.6569679009310698
aF0.9187270703850116
aF322.6028892170502
aF1.9935521625129654e-05
aF0.02547293295966689
aa(lp174
F1.701205055357891
aF194.74944931974449
aF272.6354158484093
aF6.34294892720095
aF0.6588055982112009
aF0.920371467330608
aF329.72730176536527
aF2.065911095118968e-05
aF0.026500026037683772
aa(lp175
F1.8961947124155807
aF186.1670972753795
aF260.6583924335968
aF6.285534615639934
aF0.656991796149068
aF0.9188785476261975
aF322.6020435716764
aF1.993743570488672e-05
aF0.02547706225420653
aa(lp176
F1.8136467832594487
aF194.7323057257814
aF272.6140637967484
aF6.326275836735975
aF0.6588268769795007
aF0.9205074604511717
aF329.7285635332463
aF2.0660988218794412e-05
aF0.0265039741067511
aasg10
g135
sg32
I3
sg33
I2
sg34
(lp177
NaNaNaNasg60
(I287
F132500.0
I300
F141250.0
tp178
sbasg60
(I275
F132500.0
I300
F150000.0
tp179
sba(i__main__
CNode
p180
(dp181
g3
I12
sg4
(lp182
(lp183
F1.6111464235478934
aF178.3371143601151
aF249.71486024292523
aF6.299947864961813
aF0.6554668927552831
aF0.9171507725574626
aF315.86008374080507
aF1.925213511277871e-05
aF0.02450538280974292
aa(lp184
F1.4763579718390654
aF194.78373358991112
aF272.67812112571124
aF6.379868604332815
aF0.6587630351930509
aF0.9200995760759202
aF329.7248095589918
aF2.0655357068002164e-05
aF0.026492131393305866
aa(lp185
F1.856622382911587
aF178.2984407702499
aF249.66459536341563
aF6.2630018364112
aF0.6555205547549536
aF0.9174870524272699
aF315.85382957458444
aF1.9256029822258964e-05
aF0.02451400435532656
aa(lp186
F1.701205055357891
aF194.74944931974449
aF272.6354158484093
aF6.34294892720095
aF0.6588055982112009
aF0.920371467330608
aF329.72730176536527
aF2.065911095118968e-05
aF0.026500026037683772
aasg10
g36
sg32
I2
sg33
I1
sg34
(lp187
(i__main__
CNode
p188
(dp189
g3
I49
sg4
(lp190
(lp191
F1.6111464235478934
aF178.3371143601151
aF249.71486024292523
aF6.299947864961813
aF0.6554668927552831
aF0.9171507725574626
aF315.86008374080507
aF1.925213511277871e-05
aF0.02450538280974292
aa(lp192
F1.5434941816806973
aF186.22177214821193
aF260.72804587758714
aF6.339146460774003
aF0.6569201059757135
aF0.918424250004363
aF322.60461417033764
aF1.9931694286008523e-05
aF0.025464676396667704
aa(lp193
F1.7338744514443802
aF178.31777854714917
aF249.6897281695176
aF6.280823708179704
aF0.655493724224345
aF0.9173188818679936
aF315.8569507058981
aF1.925408229994421e-05
aF0.024509693146335488
aa(lp194
F1.6610452967040552
aF186.20354861113154
aF260.70482816416484
aF6.3200291202375745
aF0.656944004205342
aF0.9185756378380737
aF322.6037460863405
aF1.9933607819215278e-05
aF0.025468804340867165
aasg10
g180
sg32
I3
sg33
I2
sg34
(lp195
NaNaNaNasg60
(I275
F115000.0
I287
F123750.0
tp196
sba(i__main__
CNode
p197
(dp198
g3
I50
sg4
(lp199
(lp200
F1.7338744514443802
aF178.31777854714917
aF249.6897281695176
aF6.280823708179704
aF0.655493724224345
aF0.9173188818679936
aF315.8569507058981
aF1.925408229994421e-05
aF0.024509693146335488
aa(lp201
F1.6610452967040552
aF186.20354861113154
aF260.70482816416484
aF6.3200291202375745
aF0.656944004205342
aF0.9185756378380737
aF322.6037460863405
aF1.9933607819215278e-05
aF0.025468804340867165
aa(lp202
F1.856622382911587
aF178.2984407702499
aF249.66459536341563
aF6.2630018364112
aF0.6555205547549536
aF0.9174870524272699
aF315.85382957458444
aF1.9256029822258964e-05
aF0.02451400435532656
aa(lp203
F1.7786121413223903
aF186.18532365322127
aF260.68161034869314
aF6.3022140669618905
aF0.6569679009310698
aF0.9187270703850116
aF322.6028892170502
aF1.9935521625129654e-05
aF0.02547293295966689
aasg10
g180
sg32
I3
sg33
I2
sg34
(lp204
NaNaNaNasg60
(I275
F123750.0
I287
F132500.0
tp205
sba(i__main__
CNode
p206
(dp207
g3
I51
sg4
(lp208
(lp209
F1.6610452967040552
aF186.20354861113154
aF260.70482816416484
aF6.3200291202375745
aF0.656944004205342
aF0.9185756378380737
aF322.6037460863405
aF1.9933607819215278e-05
aF0.025468804340867165
aa(lp210
F1.58877545022894
aF194.76659194141467
aF272.6567682921178
aF6.360757621297261
aF0.658784317614736
aF0.9202355058652785
aF329.7260504430557
aF2.065723390124127e-05
aF0.026496078466827694
aa(lp211
F1.7786121413223903
aF186.18532365322127
aF260.68161034869314
aF6.3022140669618905
aF0.6569679009310698
aF0.9187270703850116
aF322.6028892170502
aF1.9935521625129654e-05
aF0.02547293295966689
aa(lp212
F1.701205055357891
aF194.74944931974449
aF272.6354158484093
aF6.34294892720095
aF0.6588055982112009
aF0.920371467330608
aF329.72730176536527
aF2.065911095118968e-05
aF0.026500026037683772
aasg10
g180
sg32
I3
sg33
I2
sg34
(lp213
NaNaNaNasg60
(I287
F123750.0
I300
F132500.0
tp214
sba(i__main__
CNode
p215
(dp216
g3
I52
sg4
(lp217
(lp218
F1.5434941816806973
aF186.22177214821193
aF260.72804587758714
aF6.339146460774003
aF0.6569201059757135
aF0.918424250004363
aF322.60461417033764
aF1.9931694286008523e-05
aF0.025464676396667704
aa(lp219
F1.4763579718390654
aF194.78373358991112
aF272.67812112571124
aF6.379868604332815
aF0.6587630351930509
aF0.9200995760759202
aF329.7248095589918
aF2.0655357068002164e-05
aF0.026492131393305866
aa(lp220
F1.6610452967040552
aF186.20354861113154
aF260.70482816416484
aF6.3200291202375745
aF0.656944004205342
aF0.9185756378380737
aF322.6037460863405
aF1.9933607819215278e-05
aF0.025468804340867165
aa(lp221
F1.58877545022894
aF194.76659194141467
aF272.6567682921178
aF6.360757621297261
aF0.658784317614736
aF0.9202355058652785
aF329.7260504430557
aF2.065723390124127e-05
aF0.026496078466827694
aasg10
g180
sg32
I3
sg33
I2
sg34
(lp222
NaNaNaNasg60
(I287
F115000.0
I300
F123750.0
tp223
sbasg60
(I275
F115000.0
I300
F132500.0
tp224
sbasg60
(I250
F115000.0
I300
F150000.0
tp225
sba(i__main__
CNode
p226
(dp227
g3
I3
sg4
(lp228
(lp229
F1.4763579718390654
aF194.78373358991112
aF272.67812112571124
aF6.379868604332815
aF0.6587630351930509
aF0.9200995760759202
aF329.7248095589918
aF2.0655357068002164e-05
aF0.026492131393305866
aa(lp230
F1.2648857038907564
aF227.9768102415515
aF318.8941157706305
aF6.522335119778826
aF0.6683348756049947
aF0.9292099923523414
aF355.48855940106756
aF2.332709181548311e-05
aF0.030337928982103333
aa(lp231
F1.926100629957602
aF194.71516116040746
aF272.5927121392999
aF6.310601750872058
aF0.6588481539166906
aF0.9206434852061881
aF329.7298357540239
aF2.0662865705002973e-05
aF0.026507922674902994
aa(lp232
F1.6499837750351556
aF227.9213374925641
aF318.8313223479024
aF6.453138321718336
aF0.6683932442985706
aF0.9295858746849666
aF355.5164517300261
aF2.3334047881815992e-05
aF0.03035144738819429
aasg10
g25
sg32
I1
sg33
I1
sg34
(lp233
(i__main__
CNode
p234
(dp235
g3
I13
sg4
(lp236
(lp237
F1.4763579718390654
aF194.78373358991112
aF272.67812112571124
aF6.379868604332815
aF0.6587630351930509
aF0.9200995760759202
aF329.7248095589918
aF2.0655357068002164e-05
aF0.026492131393305866
aa(lp238
F1.362441820586801
aF211.32177789337706
aF295.729051849831
aF6.453668797912043
aF0.6630763505963316
aF0.9241521109355895
aF342.91099529083556
aF2.2012432273367626e-05
aF0.028435259641963855
aa(lp239
F1.701205055357891
aF194.74944931974449
aF272.6354158484093
aF6.34294892720095
aF0.6588055982112009
aF0.920371467330608
aF329.72730176536527
aF2.065911095118968e-05
aF0.026500026037683772
aa(lp240
F1.569878248322652
aF211.29107035610156
aF295.6925200491402
aF6.416768911860269
aF0.6631111889360173
aF0.9243763553217695
aF342.92000134287014
aF2.201604606747212e-05
aF0.028442541450178563
aasg10
g226
sg32
I2
sg33
I1
sg34
(lp241
(i__main__
CNode
p242
(dp243
g3
I53
sg4
(lp244
(lp245
F1.4763579718390654
aF194.78373358991112
aF272.67812112571124
aF6.379868604332815
aF0.6587630351930509
aF0.9200995760759202
aF329.7248095589918
aF2.0655357068002164e-05
aF0.026492131393305866
aa(lp246
F1.4193854722059756
aF202.70896098884555
aF283.72993961086127
aF6.415990055583547
aF0.6607095028368524
aF0.9219119752289555
aF336.1343616905916
aF2.131227249798468e-05
aF0.02743007391451619
aa(lp247
F1.58877545022894
aF194.76659194141467
aF272.6567682921178
aF6.360757621297261
aF0.658784317614736
aF0.9202355058652785
aF329.7260504430557
aF2.065723390124127e-05
aF0.026496078466827694
aa(lp248
F1.5274492517512437
aF202.69272095020037
aF283.7101425490644
aF6.396884158994665
aF0.6607287700271842
aF0.9220356274634242
aF336.1372826708432
aF2.1314115553335607e-05
aF0.027433867365170506
aasg10
g234
sg32
I3
sg33
I2
sg34
(lp249
NaNaNaNasg60
(I300
F115000.0
I312
F123750.0
tp250
sba(i__main__
CNode
p251
(dp252
g3
I54
sg4
(lp253
(lp254
F1.58877545022894
aF194.76659194141467
aF272.6567682921178
aF6.360757621297261
aF0.658784317614736
aF0.9202355058652785
aF329.7260504430557
aF2.065723390124127e-05
aF0.026496078466827694
aa(lp255
F1.5274492517512437
aF202.69272095020037
aF283.7101425490644
aF6.396884158994665
aF0.6607287700271842
aF0.9220356274634242
aF336.1372826708432
aF2.1314115553335607e-05
aF0.027433867365170506
aa(lp256
F1.701205055357891
aF194.74944931974449
aF272.6354158484093
aF6.34294892720095
aF0.6588055982112009
aF0.920371467330608
aF329.72730176536527
aF2.065911095118968e-05
aF0.026500026037683772
aa(lp257
F1.6355224929764374
aF202.67648025429267
aF283.69034620172283
aF6.379080552406976
aF0.6607480352582967
aF0.9221593025474155
aF336.14021337881786
aF2.1315958782471817e-05
aF0.027437661159440453
aasg10
g234
sg32
I3
sg33
I2
sg34
(lp258
NaNaNaNasg60
(I300
F123750.0
I312
F132500.0
tp259
sba(i__main__
CNode
p260
(dp261
g3
I55
sg4
(lp262
(lp263
F1.5274492517512437
aF202.69272095020037
aF283.7101425490644
aF6.396884158994665
aF0.6607287700271842
aF0.9220356274634242
aF336.1372826708432
aF2.1314115553335607e-05
aF0.027433867365170506
aa(lp264
F1.466156467743291
aF211.3064243218805
aF295.7107854679157
aF6.434567709494612
aF0.663093770765921
aF0.9242642252409259
aF342.9154938235165
aF2.201423910290667e-05
aF0.02843890041579354
aa(lp265
F1.6355224929764374
aF202.67648025429267
aF283.69034620172283
aF6.379080552406976
aF0.6607480352582967
aF0.9221593025474155
aF336.14021337881786
aF2.1315958782471817e-05
aF0.027437661159440453
aa(lp266
F1.569878248322652
aF211.29107035610156
aF295.6925200491402
aF6.416768911860269
aF0.6631111889360173
aF0.9243763553217695
aF342.92000134287014
aF2.201604606747212e-05
aF0.028442541450178563
aasg10
g234
sg32
I3
sg33
I2
sg34
(lp267
NaNaNaNasg60
(I312
F123750.0
I325
F132500.0
tp268
sba(i__main__
CNode
p269
(dp270
g3
I56
sg4
(lp271
(lp272
F1.4193854722059756
aF202.70896098884555
aF283.72993961086127
aF6.415990055583547
aF0.6607095028368524
aF0.9219119752289555
aF336.1343616905916
aF2.131227249798468e-05
aF0.02743007391451619
aa(lp273
F1.362441820586801
aF211.32177789337706
aF295.729051849831
aF6.453668797912043
aF0.6630763505963316
aF0.9241521109355895
aF342.91099529083556
aF2.2012432273367626e-05
aF0.028435259641963855
aa(lp274
F1.5274492517512437
aF202.69272095020037
aF283.7101425490644
aF6.396884158994665
aF0.6607287700271842
aF0.9220356274634242
aF336.1372826708432
aF2.1314115553335607e-05
aF0.027433867365170506
aa(lp275
F1.466156467743291
aF211.3064243218805
aF295.7107854679157
aF6.434567709494612
aF0.663093770765921
aF0.9242642252409259
aF342.9154938235165
aF2.201423910290667e-05
aF0.02843890041579354
aasg10
g234
sg32
I3
sg33
I2
sg34
(lp276
NaNaNaNasg60
(I312
F115000.0
I325
F123750.0
tp277
sbasg60
(I300
F115000.0
I325
F132500.0
tp278
sba(i__main__
CNode
p279
(dp280
g3
I14
sg4
(lp281
(lp282
F1.701205055357891
aF194.74944931974449
aF272.6354158484093
aF6.34294892720095
aF0.6588055982112009
aF0.920371467330608
aF329.72730176536527
aF2.065911095118968e-05
aF0.026500026037683772
aa(lp283
F1.569878248322652
aF211.29107035610156
aF295.6925200491402
aF6.416768911860269
aF0.6631111889360173
aF0.9243763553217695
aF342.92000134287014
aF2.201604606747212e-05
aF0.028442541450178563
aa(lp284
F1.926100629957602
aF194.71516116040746
aF272.5927121392999
aF6.310601750872058
aF0.6588481539166906
aF0.9206434852061881
aF329.7298357540239
aF2.0662865705002973e-05
aF0.026507922674902994
aa(lp285
F1.7773431926065622
aF211.2603612447064
aF295.6559921076561
aF6.384441533980414
aF0.663146019270727
aF0.9246006627351995
aF342.9290433606696
aF2.2019660404436158e-05
aF0.028449824302891377
aasg10
g226
sg32
I2
sg33
I1
sg34
(lp286
(i__main__
CNode
p287
(dp288
g3
I57
sg4
(lp289
(lp290
F1.701205055357891
aF194.74944931974449
aF272.6354158484093
aF6.34294892720095
aF0.6588055982112009
aF0.920371467330608
aF329.72730176536527
aF2.065911095118968e-05
aF0.026500026037683772
aa(lp291
F1.6355224929764374
aF202.67648025429267
aF283.69034620172283
aF6.379080552406976
aF0.6607480352582967
aF0.9221593025474155
aF336.14021337881786
aF2.1315958782471817e-05
aF0.027437661159440453
aa(lp292
F1.8136467832594487
aF194.7323057257814
aF272.6140637967484
aF6.326275836735975
aF0.6588268769795007
aF0.9205074604511717
aF329.7285635332463
aF2.0660988218794412e-05
aF0.0265039741067511
aa(lp293
F1.7436051916141042
aF202.66023890194998
aF283.6705505707521
aF6.362412550511772
aF0.660767298527893
aF0.9222830004606652
aF336.14315382046584
aF2.1317802186202233e-05
aF0.02744145529799085
aasg10
g279
sg32
I3
sg33
I2
sg34
(lp294
NaNaNaNasg60
(I300
F132500.0
I312
F141250.0
tp295
sba(i__main__
CNode
p296
(dp297
g3
I58
sg4
(lp298
(lp299
F1.8136467832594487
aF194.7323057257814
aF272.6140637967484
aF6.326275836735975
aF0.6588268769795007
aF0.9205074604511717
aF329.7285635332463
aF2.0660988218794412e-05
aF0.0265039741067511
aa(lp300
F1.7436051916141042
aF202.66023890194998
aF283.6705505707521
aF6.362412550511772
aF0.660767298527893
aF0.9222830004606652
aF336.14315382046584
aF2.1317802186202233e-05
aF0.02744145529799085
aa(lp301
F1.926100629957602
aF194.71516116040746
aF272.5927121392999
aF6.310601750872058
aF0.6588481539166906
aF0.9206434852061881
aF329.7298357540239
aF2.0662865705002973e-05
aF0.026507922674902994
aa(lp302
F1.851697343389274
aF202.643996894001
aF283.6507556580687
aF6.3467435542779596
aF0.6607865598336745
aF0.9224067211828766
aF336.1461040017356
aF2.131964576533611e-05
aF0.027445249781486627
aasg10
g279
sg32
I3
sg33
I2
sg34
(lp303
NaNaNaNasg60
(I300
F141250.0
I312
F150000.0
tp304
sba(i__main__
CNode
p305
(dp306
g3
I59
sg4
(lp307
(lp308
F1.7436051916141042
aF202.66023890194998
aF283.6705505707521
aF6.362412550511772
aF0.660767298527893
aF0.9222830004606652
aF336.14315382046584
aF2.1317802186202233e-05
aF0.02744145529799085
aa(lp309
F1.673607158040465
aF211.2757159967925
aF295.67425559516636
aF6.400105719699499
aF0.6631286051048694
aF0.9244885011594313
aF342.9245178536654
aF2.2017853167752405e-05
aF0.028446182745688102
aa(lp310
F1.851697343389274
aF202.643996894001
aF283.6507556580687
aF6.3467435542779596
aF0.6607865598336745
aF0.9224067211828766
aF336.1461040017356
aF2.131964576533611e-05
aF0.027445249781486627
aa(lp311
F1.7773431926065622
aF211.2603612447064
aF295.6559921076561
aF6.384441533980414
aF0.663146019270727
aF0.9246006627351995
aF342.9290433606696
aF2.2019660404436158e-05
aF0.028449824302891377
aasg10
g279
sg32
I3
sg33
I2
sg34
(lp312
NaNaNaNasg60
(I312
F141250.0
I325
F150000.0
tp313
sba(i__main__
CNode
p314
(dp315
g3
I60
sg4
(lp316
(lp317
F1.6355224929764374
aF202.67648025429267
aF283.69034620172283
aF6.379080552406976
aF0.6607480352582967
aF0.9221593025474155
aF336.14021337881786
aF2.1315958782471817e-05
aF0.027437661159440453
aa(lp318
F1.569878248322652
aF211.29107035610156
aF295.6925200491402
aF6.416768911860269
aF0.6631111889360173
aF0.9243763553217695
aF342.92000134287014
aF2.201604606747212e-05
aF0.028442541450178563
aa(lp319
F1.7436051916141042
aF202.66023890194998
aF283.6705505707521
aF6.362412550511772
aF0.660767298527893
aF0.9222830004606652
aF336.14315382046584
aF2.1317802186202233e-05
aF0.02744145529799085
aa(lp320
F1.673607158040465
aF211.2757159967925
aF295.67425559516636
aF6.400105719699499
aF0.6631286051048694
aF0.9244885011594313
aF342.9245178536654
aF2.2017853167752405e-05
aF0.028446182745688102
aasg10
g279
sg32
I3
sg33
I2
sg34
(lp321
NaNaNaNasg60
(I312
F132500.0
I325
F141250.0
tp322
sbasg60
(I300
F132500.0
I325
F150000.0
tp323
sba(i__main__
CNode
p324
(dp325
g3
I15
sg4
(lp326
(lp327
F1.569878248322652
aF211.29107035610156
aF295.6925200491402
aF6.416768911860269
aF0.6631111889360173
aF0.9243763553217695
aF342.92000134287014
aF2.201604606747212e-05
aF0.028442541450178563
aa(lp328
F1.4574270284532664
aF227.94907396895044
aF318.86271658241236
aF6.485450465032402
aF0.6683640637947613
aF0.9293979195494002
aF355.5024901890189
aF2.3330569691614357e-05
aF0.03034468789708471
aa(lp329
F1.7773431926065622
aF211.2603612447064
aF295.6559921076561
aF6.384441533980414
aF0.663146019270727
aF0.9246006627351995
aF342.9290433606696
aF2.2019660404436158e-05
aF0.028449824302891377
aa(lp330
F1.6499837750351556
aF227.9213374925641
aF318.8313223479024
aF6.453138321718336
aF0.6683932442985706
aF0.9295858746849666
aF355.5164517300261
aF2.3334047881815992e-05
aF0.03035144738819429
aasg10
g226
sg32
I2
sg33
I1
sg34
(lp331
(i__main__
CNode
p332
(dp333
g3
I61
sg4
(lp334
(lp335
F1.569878248322652
aF211.29107035610156
aF295.6925200491402
aF6.416768911860269
aF0.6631111889360173
aF0.9243763553217695
aF342.92000134287014
aF2.201604606747212e-05
aF0.028442541450178563
aa(lp336
F1.5138071415232588
aF219.27089546566881
aF306.79855758693
aF6.450325320045538
aF0.6655209695566628
aF0.9266678475731845
aF349.03171115025145
aF2.2652096514159626e-05
aF0.029360427373377743
aa(lp337
F1.673607158040465
aF211.2757159967925
aF295.67425559516636
aF6.400105719699499
aF0.6631286051048694
aF0.9244885011594313
aF342.9245178536654
aF2.2017853167752405e-05
aF0.028446182745688102
aa(lp338
F1.6138191913719644
aF219.25628734063633
aF306.7815818439929
aF6.433666022717733
aF0.6655369271748554
aF0.9267706839955104
aF349.03749256129254
aF2.265387062150107e-05
aF0.029363938186449463
aasg10
g324
sg32
I3
sg33
I2
sg34
(lp339
NaNaNaNasg60
(I325
F132500.0
I337
F141250.0
tp340
sba(i__main__
CNode
p341
(dp342
g3
I62
sg4
(lp343
(lp344
F1.673607158040465
aF211.2757159967925
aF295.67425559516636
aF6.400105719699499
aF0.6631286051048694
aF0.9244885011594313
aF342.9245178536654
aF2.2017853167752405e-05
aF0.028446182745688102
aa(lp345
F1.6138191913719644
aF219.25628734063633
aF306.7815818439929
aF6.433666022717733
aF0.6655369271748554
aF0.9267706839955104
aF349.03749256129254
aF2.265387062150107e-05
aF0.029363938186449463
aa(lp346
F1.7773431926065622
aF211.2603612447064
aF295.6559921076561
aF6.384441533980414
aF0.663146019270727
aF0.9246006627351995
aF342.9290433606696
aF2.2019660404436158e-05
aF0.028449824302891377
aa(lp347
F1.7138366260900595
aF219.24167900947305
aF306.7646072259212
aF6.4180057323107516
aF0.6655528828115012
aF0.9268735313081071
aF349.0432823199728
aF2.2655644835173237e-05
aF0.029367449198934525
aasg10
g324
sg32
I3
sg33
I2
sg34
(lp348
NaNaNaNasg60
(I325
F141250.0
I337
F150000.0
tp349
sba(i__main__
CNode
p350
(dp351
g3
I63
sg4
(lp352
(lp353
F1.6138191913719644
aF219.25628734063633
aF306.7815818439929
aF6.433666022717733
aF0.6655369271748554
aF0.9267706839955104
aF349.03749256129254
aF2.265387062150107e-05
aF0.029363938186449463
aa(lp354
F1.5537034759290584
aF227.9352057559311
aF318.8470188453223
aF6.468794889747593
aF0.6683786550079266
aF0.9294918936322512
aF355.5094671138119
aF2.3332308747197692e-05
aF0.030348067570404074
aa(lp355
F1.7138366260900595
aF219.24167900947305
aF306.7646072259212
aF6.4180057323107516
aF0.6655528828115012
aF0.9268735313081071
aF349.0432823199728
aF2.2655644835173237e-05
aF0.029367449198934525
aa(lp356
F1.6499837750351556
aF227.9213374925641
aF318.8313223479024
aF6.453138321718336
aF0.6683932442985706
aF0.9295858746849666
aF355.5164517300261
aF2.3334047881815992e-05
aF0.03035144738819429
aasg10
g324
sg32
I3
sg33
I2
sg34
(lp357
NaNaNaNasg60
(I337
F141250.0
I350
F150000.0
tp358
sba(i__main__
CNode
p359
(dp360
g3
I64
sg4
(lp361
(lp362
F1.5138071415232588
aF219.27089546566881
aF306.79855758693
aF6.450325320045538
aF0.6655209695566628
aF0.9266678475731845
aF349.03171115025145
aF2.2652096514159626e-05
aF0.029360427373377743
aa(lp363
F1.4574270284532664
aF227.94907396895044
aF318.86271658241236
aF6.485450465032402
aF0.6683640637947613
aF0.9293979195494002
aF355.5024901890189
aF2.3330569691614357e-05
aF0.03034468789708471
aa(lp364
F1.6138191913719644
aF219.25628734063633
aF306.7815818439929
aF6.433666022717733
aF0.6655369271748554
aF0.9267706839955104
aF349.03749256129254
aF2.265387062150107e-05
aF0.029363938186449463
aa(lp365
F1.5537034759290584
aF227.9352057559311
aF318.8470188453223
aF6.468794889747593
aF0.6683786550079266
aF0.9294918936322512
aF355.5094671138119
aF2.3332308747197692e-05
aF0.030348067570404074
aasg10
g324
sg32
I3
sg33
I2
sg34
(lp366
NaNaNaNasg60
(I337
F132500.0
I350
F141250.0
tp367
sbasg60
(I325
F132500.0
I350
F150000.0
tp368
sba(i__main__
CNode
p369
(dp370
g3
I16
sg4
(lp371
(lp372
F1.362441820586801
aF211.32177789337706
aF295.729051849831
aF6.453668797912043
aF0.6630763505963316
aF0.9241521109355895
aF342.91099529083556
aF2.2012432273367626e-05
aF0.028435259641963855
aa(lp373
F1.2648857038907564
aF227.9768102415515
aF318.8941157706305
aF6.522335119778826
aF0.6683348756049947
aF0.9292099923523414
aF355.48855940106756
aF2.332709181548311e-05
aF0.030337928982103333
aa(lp374
F1.569878248322652
aF211.29107035610156
aF295.6925200491402
aF6.416768911860269
aF0.6631111889360173
aF0.9243763553217695
aF342.92000134287014
aF2.201604606747212e-05
aF0.028442541450178563
aa(lp375
F1.4574270284532664
aF227.94907396895044
aF318.86271658241236
aF6.485450465032402
aF0.6683640637947613
aF0.9293979195494002
aF355.5024901890189
aF2.3330569691614357e-05
aF0.03034468789708471
aasg10
g226
sg32
I2
sg33
I1
sg34
(lp376
(i__main__
CNode
p377
(dp378
g3
I65
sg4
(lp379
(lp380
F1.362441820586801
aF211.32177789337706
aF295.729051849831
aF6.453668797912043
aF0.6630763505963316
aF0.9241521109355895
aF342.91099529083556
aF2.2012432273367626e-05
aF0.028435259641963855
aa(lp381
F1.3137992129810496
aF219.30011109462856
aF306.8325124416057
aF6.487217417871372
aF0.6654890483810757
aF0.9264622074667511
aF349.0201733554755
aF2.264854861607679e-05
aF0.029353406343476315
aa(lp382
F1.466156467743291
aF211.3064243218805
aF295.7107854679157
aF6.434567709494612
aF0.663093770765921
aF0.9242642252409259
aF342.9154938235165
aF2.201423910290667e-05
aF0.02843890041579354
aa(lp383
F1.4138004806818152
aF219.28550338389212
aF306.8155344532836
aF6.468120223326699
aF0.6655050099582831
aF0.926565022057985
aF349.0259380829472
aF2.2650322512550843e-05
aF0.02935691675921986
aasg10
g369
sg32
I3
sg33
I2
sg34
(lp384
NaNaNaNasg60
(I325
F115000.0
I337
F123750.0
tp385
sba(i__main__
CNode
p386
(dp387
g3
I66
sg4
(lp388
(lp389
F1.466156467743291
aF211.3064243218805
aF295.7107854679157
aF6.434567709494612
aF0.663093770765921
aF0.9242642252409259
aF342.9154938235165
aF2.201423910290667e-05
aF0.02843890041579354
aa(lp390
F1.4138004806818152
aF219.28550338389212
aF306.8155344532836
aF6.468120223326699
aF0.6655050099582831
aF0.926565022057985
aF349.0259380829472
aF2.2650322512550843e-05
aF0.02935691675921986
aa(lp391
F1.569878248322652
aF211.29107035610156
aF295.6925200491402
aF6.416768911860269
aF0.6631111889360173
aF0.9243763553217695
aF342.92000134287014
aF2.201604606747212e-05
aF0.028442541450178563
aa(lp392
F1.5138071415232588
aF219.27089546566881
aF306.79855758693
aF6.450325320045538
aF0.6655209695566628
aF0.9266678475731845
aF349.03171115025145
aF2.2652096514159626e-05
aF0.029360427373377743
aasg10
g369
sg32
I3
sg33
I2
sg34
(lp393
NaNaNaNasg60
(I325
F123750.0
I337
F132500.0
tp394
sba(i__main__
CNode
p395
(dp396
g3
I67
sg4
(lp397
(lp398
F1.4138004806818152
aF219.28550338389212
aF306.8155344532836
aF6.468120223326699
aF0.6655050099582831
aF0.926565022057985
aF349.0259380829472
aF2.2650322512550843e-05
aF0.02935691675921986
aa(lp399
F1.3611544364831611
aF227.96294213102342
aF318.8784155579294
aF6.503241646605894
aF0.6683494706601069
aF0.9293039524511785
aF355.4955209524903
aF2.3328830714548603e-05
aF0.0303413083677974
aa(lp400
F1.5138071415232588
aF219.27089546566881
aF306.79855758693
aF6.450325320045538
aF0.6655209695566628
aF0.9266678475731845
aF349.03171115025145
aF2.2652096514159626e-05
aF0.029360427373377743
aa(lp401
F1.4574270284532664
aF227.94907396895044
aF318.86271658241236
aF6.485450465032402
aF0.6683640637947613
aF0.9293979195494002
aF355.5024901890189
aF2.3330569691614357e-05
aF0.03034468789708471
aasg10
g369
sg32
I3
sg33
I2
sg34
(lp402
NaNaNaNasg60
(I337
F123750.0
I350
F132500.0
tp403
sba(i__main__
CNode
p404
(dp405
g3
I68
sg4
(lp406
(lp407
F1.3137992129810496
aF219.30011109462856
aF306.8325124416057
aF6.487217417871372
aF0.6654890483810757
aF0.9264622074667511
aF349.0201733554755
aF2.264854861607679e-05
aF0.029353406343476315
aa(lp408
F1.2648857038907564
aF227.9768102415515
aF318.8941157706305
aF6.522335119778826
aF0.6683348756049947
aF0.9292099923523414
aF355.48855940106756
aF2.332709181548311e-05
aF0.030337928982103333
aa(lp409
F1.4138004806818152
aF219.28550338389212
aF306.8155344532836
aF6.468120223326699
aF0.6655050099582831
aF0.926565022057985
aF349.0259380829472
aF2.2650322512550843e-05
aF0.02935691675921986
aa(lp410
F1.3611544364831611
aF227.96294213102342
aF318.8784155579294
aF6.503241646605894
aF0.6683494706601069
aF0.9293039524511785
aF355.4955209524903
aF2.3328830714548603e-05
aF0.0303413083677974
aasg10
g369
sg32
I3
sg33
I2
sg34
(lp411
NaNaNaNasg60
(I337
F115000.0
I350
F123750.0
tp412
sbasg60
(I325
F115000.0
I350
F132500.0
tp413
sbasg60
(I300
F115000.0
I350
F150000.0
tp414
sba(i__main__
CNode
p415
(dp416
g3
I4
sg4
(lp417
(lp418
F1.0268094046660616
aF194.85229043458108
aF272.7635363157167
aF6.47439180202825
aF0.6586778873129832
aF0.9195561740914121
aF329.71995025863924
aF2.0647851883215303e-05
aF0.02647634805485789
aa(lp419
F0.8798494446205319
aF228.0322821562554
aF318.95692896841894
aF6.6167883046825775
aF0.6682764762006296
aF0.9288342222455881
aF355.46078998319854
aF2.332013698888015e-05
aF0.03032441286648283
aa(lp420
F1.4763579718390654
aF194.78373358991112
aF272.67812112571124
aF6.379868604332815
aF0.6587630351930509
aF0.9200995760759202
aF329.7248095589918
aF2.0655357068002164e-05
aF0.026492131393305866
aa(lp421
F1.2648857038907564
aF227.9768102415515
aF318.8941157706305
aF6.522335119778826
aF0.6683348756049947
aF0.9292099923523414
aF355.48855940106756
aF2.332709181548311e-05
aF0.030337928982103333
aasg10
g25
sg32
I1
sg33
I1
sg34
(lp422
(i__main__
CNode
p423
(dp424
g3
I17
sg4
(lp425
(lp426
F1.0268094046660616
aF194.85229043458108
aF272.7635363157167
aF6.47439180202825
aF0.6586778873129832
aF0.9195561740914121
aF329.71995025863924
aF2.0647851883215303e-05
aF0.02647634805485789
aa(lp427
F0.9476546516767935
aF211.38318822151177
aF295.8021269756738
aF6.548152435605437
aF0.6630066499580645
aF0.9237038118423523
aF342.8930909313967
aF2.200520629171423e-05
aF0.02842069914081661
aa(lp428
F1.251559411094745
aF194.81801396386498
aF272.72082795390656
aF6.422875962492851
aF0.6587204648857959
aF0.9198278116078472
aF329.722359076292
aF2.06516040478662e-05
aF0.026484238734735262
aa(lp429
F1.1550339436513761
aF211.3524838505162
aF295.7655874964368
aF6.496656372373766
aF0.663041504265677
aF0.9239279297260888
aF342.9020251664069
aF2.2008819016616083e-05
aF0.02842797887369402
aasg10
g415
sg32
I2
sg33
I1
sg34
(lp430
(i__main__
CNode
p431
(dp432
g3
I69
sg4
(lp433
(lp434
F1.0268094046660616
aF194.85229043458108
aF272.7635363157167
aF6.47439180202825
aF0.6586778873129832
aF0.9195561740914121
aF329.71995025863924
aF2.0647851883215303e-05
aF0.02647634805485789
aa(lp435
F0.9872250559102307
aF202.77391455427565
aF283.80913496431606
aF6.510492918127958
aF0.6606324145292928
aF0.9214175951905107
aF336.1227749277646
aF2.1304901998266617e-05
aF0.02741490353476263
aa(lp436
F1.13917833662558
aF194.83515268756616
aF272.7421819441889
aF6.447364879284881
aF0.6586991770061129
aF0.919691976970388
aF329.72114946299945
aF2.064972785907772e-05
aF0.02648029314790846
aa(lp437
F1.0952509462115383
aF202.75767715294117
aF283.7893350638385
aF6.4834710775753885
aF0.6606516895335222
aF0.9215411558248661
aF336.1256570566535
aF2.1306744366559187e-05
aF0.027418695617600457
aasg10
g423
sg32
I3
sg33
I2
sg34
(lp438
NaNaNaNasg60
(I300
F80000.0
I312
F88750.0
tp439
sba(i__main__
CNode
p440
(dp441
g3
I70
sg4
(lp442
(lp443
F1.13917833662558
aF194.83515268756616
aF272.7421819441889
aF6.447364879284881
aF0.6586991770061129
aF0.919691976970388
aF329.72114946299945
aF2.064972785907772e-05
aF0.02648029314790846
aa(lp444
F1.0952509462115383
aF202.75767715294117
aF283.7893350638385
aF6.4834710775753885
aF0.6606516895335222
aF0.9215411558248661
aF336.1256570566535
aF2.1306744366559187e-05
aF0.027418695617600457
aa(lp445
F1.251559411094745
aF194.81801396386498
aF272.72082795390656
aF6.422875962492851
aF0.6587204648857959
aF0.9198278116078472
aF329.722359076292
aF2.06516040478662e-05
aF0.026484238734735262
aa(lp446
F1.2032863151874538
aF202.7414390910416
aF283.76953587016186
aF6.458987244039331
aF0.6606709625877238
aF0.92166473938949
aF336.1285488894506
aF2.1308586905404583e-05
aF0.027422488041395715
aasg10
g423
sg32
I3
sg33
I2
sg34
(lp447
NaNaNaNasg60
(I300
F88750.0
I312
F97500.0
tp448
sba(i__main__
CNode
p449
(dp450
g3
I71
sg4
(lp451
(lp452
F1.0952509462115383
aF202.75767715294117
aF283.7893350638385
aF6.4834710775753885
aF0.6606516895335222
aF0.9215411558248661
aF336.1256570566535
aF2.1306744366559187e-05
aF0.027418695617600457
aa(lp453
F1.0513407224125455
aF211.36783623465703
aF295.78385675780635
aF6.521135400088811
aF0.6630240781081146
aF0.9238158628591959
aF342.89755356511233
aF2.200701258802777e-05
aF0.028424338878115758
aa(lp454
F1.2032863151874538
aF202.7414390910416
aF283.76953587016186
aF6.458987244039331
aF0.6606709625877238
aF0.92166473938949
aF336.1285488894506
aF2.1308586905404583e-05
aF0.027422488041395715
aa(lp455
F1.1550339436513761
aF211.3524838505162
aF295.7655874964368
aF6.496656372373766
aF0.663041504265677
aF0.9239279297260888
aF342.9020251664069
aF2.2008819016616083e-05
aF0.02842797887369402
aasg10
g423
sg32
I3
sg33
I2
sg34
(lp456
NaNaNaNasg60
(I312
F88750.0
I325
F97500.0
tp457
sba(i__main__
CNode
p458
(dp459
g3
I72
sg4
(lp460
(lp461
F0.9872250559102307
aF202.77391455427565
aF283.80913496431606
aF6.510492918127958
aF0.6606324145292928
aF0.9214175951905107
aF336.1227749277646
aF2.1304901998266617e-05
aF0.02741490353476263
aa(lp462
F0.9476546516767935
aF211.38318822151177
aF295.8021269756738
aF6.548152435605437
aF0.6630066499580645
aF0.9237038118423523
aF342.8930909313967
aF2.200520629171423e-05
aF0.02842069914081661
aa(lp463
F1.0952509462115383
aF202.75767715294117
aF283.7893350638385
aF6.4834710775753885
aF0.6606516895335222
aF0.9215411558248661
aF336.1256570566535
aF2.1306744366559187e-05
aF0.027418695617600457
aa(lp464
F1.0513407224125455
aF211.36783623465703
aF295.78385675780635
aF6.521135400088811
aF0.6630240781081146
aF0.9238158628591959
aF342.89755356511233
aF2.200701258802777e-05
aF0.028424338878115758
aasg10
g423
sg32
I3
sg33
I2
sg34
(lp465
NaNaNaNasg60
(I312
F80000.0
I325
F88750.0
tp466
sbasg60
(I300
F80000.0
I325
F97500.0
tp467
sba(i__main__
CNode
p468
(dp469
g3
I18
sg4
(lp470
(lp471
F1.251559411094745
aF194.81801396386498
aF272.72082795390656
aF6.422875962492851
aF0.6587204648857959
aF0.9198278116078472
aF329.722359076292
aF2.06516040478662e-05
aF0.026484238734735262
aa(lp472
F1.1550339436513761
aF211.3524838505162
aF295.7655874964368
aF6.496656372373766
aF0.663041504265677
aF0.9239279297260888
aF342.9020251664069
aF2.2008819016616083e-05
aF0.02842797887369402
aa(lp473
F1.4763579718390654
aF194.78373358991112
aF272.67812112571124
aF6.379868604332815
aF0.6587630351930509
aF0.9200995760759202
aF329.7248095589918
aF2.0655357068002164e-05
aF0.026492131393305866
aa(lp474
F1.362441820586801
aF211.32177789337706
aF295.729051849831
aF6.453668797912043
aF0.6630763505963316
aF0.9241521109355895
aF342.91099529083556
aF2.2012432273367626e-05
aF0.028435259641963855
aasg10
g415
sg32
I2
sg33
I1
sg34
(lp475
(i__main__
CNode
p476
(dp477
g3
I73
sg4
(lp478
(lp479
F1.251559411094745
aF194.81801396386498
aF272.72082795390656
aF6.422875962492851
aF0.6587204648857959
aF0.9198278116078472
aF329.722359076292
aF2.06516040478662e-05
aF0.026484238734735262
aa(lp480
F1.2032863151874538
aF202.7414390910416
aF283.76953587016186
aF6.458987244039331
aF0.6606709625877238
aF0.92166473938949
aF336.1285488894506
aF2.1308586905404583e-05
aF0.027422488041395715
aa(lp481
F1.3639526241451994
aF194.80087426435412
aF272.6994743470277
aF6.400488188371459
aF0.6587417509490898
aF0.9199636779832264
aF329.7235791058465
aF2.0653480450525827e-05
aF0.026488184816237093
aa(lp482
F1.3113311586005707
aF202.72520036940134
aF283.74973738519833
aF6.436604554238282
aF0.6606902336895997
aF0.9217883458642434
aF336.13145043211176
aF2.1310429615610432e-05
aF0.027426280806812794
aasg10
g468
sg32
I3
sg33
I2
sg34
(lp483
NaNaNaNasg60
(I300
F97500.0
I312
F106250.0
tp484
sba(i__main__
CNode
p485
(dp486
g3
I74
sg4
(lp487
(lp488
F1.3639526241451994
aF194.80087426435412
aF272.6994743470277
aF6.400488188371459
aF0.6587417509490898
aF0.9199636779832264
aF329.7235791058465
aF2.0653480450525827e-05
aF0.026488184816237093
aa(lp489
F1.3113311586005707
aF202.72520036940134
aF283.74973738519833
aF6.436604554238282
aF0.6606902336895997
aF0.9217883458642434
aF336.13145043211176
aF2.1310429615610432e-05
aF0.027426280806812794
aa(lp490
F1.4763579718390654
aF194.78373358991112
aF272.67812112571124
aF6.379868604332815
aF0.6587630351930509
aF0.9200995760759202
aF329.7248095589918
aF2.0655357068002164e-05
aF0.026492131393305866
aa(lp491
F1.4193854722059756
aF202.70896098884555
aF283.72993961086127
aF6.415990055583547
aF0.6607095028368524
aF0.9219119752289555
aF336.1343616905916
aF2.131227249798468e-05
aF0.02743007391451619
aasg10
g468
sg32
I3
sg33
I2
sg34
(lp492
NaNaNaNasg60
(I300
F106250.0
I312
F115000.0
tp493
sba(i__main__
CNode
p494
(dp495
g3
I75
sg4
(lp496
(lp497
F1.3113311586005707
aF202.72520036940134
aF283.74973738519833
aF6.436604554238282
aF0.6606902336895997
aF0.9217883458642434
aF336.13145043211176
aF2.1310429615610432e-05
aF0.027426280806812794
aa(lp498
F1.258734311131854
aF211.33713106983936
aF295.74731919322494
aF6.4742784891780065
aF0.6630589284289998
aF0.9240400124244283
aF342.90650574005656
aF2.2010625578166767e-05
aF0.028431619128120374
aa(lp499
F1.4193854722059756
aF202.70896098884555
aF283.72993961086127
aF6.415990055583547
aF0.6607095028368524
aF0.9219119752289555
aF336.1343616905916
aF2.131227249798468e-05
aF0.02743007391451619
aa(lp500
F1.362441820586801
aF211.32177789337706
aF295.729051849831
aF6.453668797912043
aF0.6630763505963316
aF0.9241521109355895
aF342.91099529083556
aF2.2012432273367626e-05
aF0.028435259641963855
aasg10
g468
sg32
I3
sg33
I2
sg34
(lp501
NaNaNaNasg60
(I312
F106250.0
I325
F115000.0
tp502
sba(i__main__
CNode
p503
(dp504
g3
I76
sg4
(lp505
(lp506
F1.2032863151874538
aF202.7414390910416
aF283.76953587016186
aF6.458987244039331
aF0.6606709625877238
aF0.92166473938949
aF336.1285488894506
aF2.1308586905404583e-05
aF0.027422488041395715
aa(lp507
F1.1550339436513761
aF211.3524838505162
aF295.7655874964368
aF6.496656372373766
aF0.663041504265677
aF0.9239279297260888
aF342.9020251664069
aF2.2008819016616083e-05
aF0.02842797887369402
aa(lp508
F1.3113311586005707
aF202.72520036940134
aF283.74973738519833
aF6.436604554238282
aF0.6606902336895997
aF0.9217883458642434
aF336.13145043211176
aF2.1310429615610432e-05
aF0.027426280806812794
aa(lp509
F1.258734311131854
aF211.33713106983936
aF295.74731919322494
aF6.4742784891780065
aF0.6630589284289998
aF0.9240400124244283
aF342.90650574005656
aF2.2010625578166767e-05
aF0.028431619128120374
aasg10
g468
sg32
I3
sg33
I2
sg34
(lp510
NaNaNaNasg60
(I312
F97500.0
I325
F106250.0
tp511
sbasg60
(I300
F97500.0
I325
F115000.0
tp512
sba(i__main__
CNode
p513
(dp514
g3
I19
sg4
(lp515
(lp516
F1.1550339436513761
aF211.3524838505162
aF295.7655874964368
aF6.496656372373766
aF0.663041504265677
aF0.9239279297260888
aF342.9020251664069
aF2.2008819016616083e-05
aF0.02842797887369402
aa(lp517
F1.0723598323102648
aF228.00454630558048
aF318.9255199026132
aF6.565307466205579
aF0.6683056797375291
aF0.9290220932117907
aF355.4746593408958
aF2.332361424928404e-05
aF0.030331170639739627
aa(lp518
F1.362441820586801
aF211.32177789337706
aF295.729051849831
aF6.453668797912043
aF0.6630763505963316
aF0.9241521109355895
aF342.91099529083556
aF2.2012432273367626e-05
aF0.028435259641963855
aa(lp519
F1.2648857038907564
aF227.9768102415515
aF318.8941157706305
aF6.522335119778826
aF0.6683348756049947
aF0.9292099923523414
aF355.48855940106756
aF2.332709181548311e-05
aF0.030337928982103333
aasg10
g415
sg32
I2
sg33
I1
sg34
(lp520
(i__main__
CNode
p521
(dp522
g3
I77
sg4
(lp523
(lp524
F1.1550339436513761
aF211.3524838505162
aF295.7655874964368
aF6.496656372373766
aF0.663041504265677
aF0.9239279297260888
aF342.9020251664069
aF2.2008819016616083e-05
aF0.02842797887369402
aa(lp525
F1.1138128735129242
aF219.32932589093133
aF306.8664717783627
aF6.530197206031447
aF0.665457119295618
aF0.9262566111234668
aF349.0086689044035
aF2.264500113614182e-05
aF0.02934638610523428
aa(lp526
F1.258734311131854
aF211.33713106983936
aF295.74731919322494
aF6.4742784891780065
aF0.6630589284289998
aF0.9240400124244283
aF342.90650574005656
aF2.2010625578166767e-05
aF0.028431619128120374
aa(lp527
F1.21380334254992
aF219.3147185972006
aF306.84949155044796
aF6.5078232157456535
aF0.6654730848264006
aF0.9263594038163084
aF349.01441696393033
aF2.2646774824139673e-05
aF0.029349896125647614
aasg10
g513
sg32
I3
sg33
I2
sg34
(lp528
NaNaNaNasg60
(I325
F97500.0
I337
F106250.0
tp529
sba(i__main__
CNode
p530
(dp531
g3
I78
sg4
(lp532
(lp533
F1.258734311131854
aF211.33713106983936
aF295.74731919322494
aF6.4742784891780065
aF0.6630589284289998
aF0.9240400124244283
aF342.90650574005656
aF2.2010625578166767e-05
aF0.028431619128120374
aa(lp534
F1.21380334254992
aF219.3147185972006
aF306.84949155044796
aF6.5078232157456535
aF0.6654730848264006
aF0.9263594038163084
aF349.01441696393033
aF2.2646774824139673e-05
aF0.029349896125647614
aa(lp535
F1.362441820586801
aF211.32177789337706
aF295.729051849831
aF6.453668797912043
aF0.6630763505963316
aF0.9241521109355895
aF342.91099529083556
aF2.2012432273367626e-05
aF0.028435259641963855
aa(lp536
F1.3137992129810496
aF219.30011109462856
aF306.8325124416057
aF6.487217417871372
aF0.6654890483810757
aF0.9264622074667511
aF349.0201733554755
aF2.264854861607679e-05
aF0.029353406343476315
aasg10
g513
sg32
I3
sg33
I2
sg34
(lp537
NaNaNaNasg60
(I325
F106250.0
I337
F115000.0
tp538
sba(i__main__
CNode
p539
(dp540
g3
I79
sg4
(lp541
(lp542
F1.21380334254992
aF219.3147185972006
aF306.84949155044796
aF6.5078232157456535
aF0.6654730848264006
aF0.9263594038163084
aF349.01441696393033
aF2.2646774824139673e-05
aF0.029349896125647614
aa(lp543
F1.1686208345446982
aF227.99067829993646
aF318.90981721927267
aF6.542937196617886
aF0.6683202786304578
aF0.9291160392676339
aF355.48160553159016
aF2.3325352993900645e-05
aF0.03033454973956369
aa(lp544
F1.3137992129810496
aF219.30011109462856
aF306.8325124416057
aF6.487217417871372
aF0.6654890483810757
aF0.9264622074667511
aF349.0201733554755
aF2.264854861607679e-05
aF0.029353406343476315
aa(lp545
F1.2648857038907564
aF227.9768102415515
aF318.8941157706305
aF6.522335119778826
aF0.6683348756049947
aF0.9292099923523414
aF355.48855940106756
aF2.332709181548311e-05
aF0.030337928982103333
aasg10
g513
sg32
I3
sg33
I2
sg34
(lp546
NaNaNaNasg60
(I337
F106250.0
I350
F115000.0
tp547
sba(i__main__
CNode
p548
(dp549
g3
I80
sg4
(lp550
(lp551
F1.1138128735129242
aF219.32932589093133
aF306.8664717783627
aF6.530197206031447
aF0.665457119295618
aF0.9262566111234668
aF349.0086689044035
aF2.264500113614182e-05
aF0.02934638610523428
aa(lp552
F1.0723598323102648
aF228.00454630558048
aF318.9255199026132
aF6.565307466205579
aF0.6683056797375291
aF0.9290220932117907
aF355.4746593408958
aF2.332361424928404e-05
aF0.030331170639739627
aa(lp553
F1.21380334254992
aF219.3147185972006
aF306.84949155044796
aF6.5078232157456535
aF0.6654730848264006
aF0.9263594038163084
aF349.01441696393033
aF2.2646774824139673e-05
aF0.029349896125647614
aa(lp554
F1.1686208345446982
aF227.99067829993646
aF318.90981721927267
aF6.542937196617886
aF0.6683202786304578
aF0.9291160392676339
aF355.48160553159016
aF2.3325352993900645e-05
aF0.03033454973956369
aasg10
g513
sg32
I3
sg33
I2
sg34
(lp555
NaNaNaNasg60
(I337
F97500.0
I350
F106250.0
tp556
sbasg60
(I325
F97500.0
I350
F115000.0
tp557
sba(i__main__
CNode
p558
(dp559
g3
I20
sg4
(lp560
(lp561
F0.9476546516767935
aF211.38318822151177
aF295.8021269756738
aF6.548152435605437
aF0.6630066499580645
aF0.9237038118423523
aF342.8930909313967
aF2.200520629171423e-05
aF0.02842069914081661
aa(lp562
F0.8798494446205319
aF228.0322821562554
aF318.95692896841894
aF6.6167883046825775
aF0.6682764762006296
aF0.9288342222455881
aF355.46078998319854
aF2.332013698888015e-05
aF0.03032441286648283
aa(lp563
F1.1550339436513761
aF211.3524838505162
aF295.7655874964368
aF6.496656372373766
aF0.663041504265677
aF0.9239279297260888
aF342.9020251664069
aF2.2008819016616083e-05
aF0.02842797887369402
aa(lp564
F1.0723598323102648
aF228.00454630558048
aF318.9255199026132
aF6.565307466205579
aF0.6683056797375291
aF0.9290220932117907
aF355.4746593408958
aF2.332361424928404e-05
aF0.030331170639739627
aasg10
g415
sg32
I2
sg33
I1
sg34
(lp565
(i__main__
CNode
p566
(dp567
g3
I81
sg4
(lp568
(lp569
F0.9476546516767935
aF211.38318822151177
aF295.8021269756738
aF6.548152435605437
aF0.6630066499580645
aF0.9237038118423523
aF342.8930909313967
aF2.200520629171423e-05
aF0.02842069914081661
aa(lp570
F0.9138481560970364
aF219.3585398491631
aF306.90043558561985
aF6.581685484890904
aF0.6654251823111746
aF0.9260510586777492
aF348.9971977657645
aF2.264145406957392e-05
aF0.029339366654655884
aa(lp571
F1.0513407224125455
aF211.36783623465703
aF295.78385675780635
aF6.521135400088811
aF0.6630240781081146
aF0.9238158628591959
aF342.89755356511233
aF2.200701258802777e-05
aF0.028424338878115758
aa(lp572
F1.0138278099901028
aF219.3439329751442
aF306.8834531239024
aF6.554672341318883
aF0.665441151790089
aF0.9261538294050202
aF349.0029291729855
aF2.2643227551485704e-05
aF0.029342876281736856
aasg10
g558
sg32
I3
sg33
I2
sg34
(lp573
NaNaNaNasg60
(I325
F80000.0
I337
F88750.0
tp574
sba(i__main__
CNode
p575
(dp576
g3
I82
sg4
(lp577
(lp578
F1.0513407224125455
aF211.36783623465703
aF295.78385675780635
aF6.521135400088811
aF0.6630240781081146
aF0.9238158628591959
aF342.89755356511233
aF2.200701258802777e-05
aF0.028424338878115758
aa(lp579
F1.0138278099901028
aF219.3439329751442
aF306.8834531239024
aF6.554672341318883
aF0.665441151790089
aF0.9261538294050202
aF349.0029291729855
aF2.2643227551485704e-05
aF0.029342876281736856
aa(lp580
F1.1550339436513761
aF211.3524838505162
aF295.7655874964368
aF6.496656372373766
aF0.663041504265677
aF0.9239279297260888
aF342.9020251664069
aF2.2008819016616083e-05
aF0.02842797887369402
aa(lp581
F1.1138128735129242
aF219.32932589093133
aF306.8664717783627
aF6.530197206031447
aF0.665457119295618
aF0.9262566111234668
aF349.0086689044035
aF2.264500113614182e-05
aF0.02934638610523428
aasg10
g558
sg32
I3
sg33
I2
sg34
(lp582
NaNaNaNasg60
(I325
F88750.0
I337
F97500.0
tp583
sba(i__main__
CNode
p584
(dp585
g3
I83
sg4
(lp586
(lp587
F1.0138278099901028
aF219.3439329751442
aF306.8834531239024
aF6.554672341318883
aF0.665441151790089
aF0.9261538294050202
aF349.0029291729855
aF2.2643227551485704e-05
aF0.029342876281736856
aa(lp588
F0.9761027010493633
aF228.0184142578859
aF318.94122381940946
aF6.58977888113263
aF0.6682910789272417
aF0.9289281541995376
aF355.46772082582055
aF2.3321875581116213e-05
aF0.030327791682192295
aa(lp589
F1.1138128735129242
aF219.32932589093133
aF306.8664717783627
aF6.530197206031447
aF0.665457119295618
aF0.9262566111234668
aF349.0086689044035
aF2.264500113614182e-05
aF0.02934638610523428
aa(lp590
F1.0723598323102648
aF228.00454630558048
aF318.9255199026132
aF6.565307466205579
aF0.6683056797375291
aF0.9290220932117907
aF355.4746593408958
aF2.332361424928404e-05
aF0.030331170639739627
aasg10
g558
sg32
I3
sg33
I2
sg34
(lp591
NaNaNaNasg60
(I337
F88750.0
I350
F97500.0
tp592
sba(i__main__
CNode
p593
(dp594
g3
I84
sg4
(lp595
(lp596
F0.9138481560970364
aF219.3585398491631
aF306.90043558561985
aF6.581685484890904
aF0.6654251823111746
aF0.9260510586777492
aF348.9971977657645
aF2.264145406957392e-05
aF0.029339366654655884
aa(lp597
F0.8798494446205319
aF228.0322821562554
aF318.95692896841894
aF6.6167883046825775
aF0.6682764762006296
aF0.9288342222455881
aF355.46078998319854
aF2.332013698888015e-05
aF0.03032441286648283
aa(lp598
F1.0138278099901028
aF219.3439329751442
aF306.8834531239024
aF6.554672341318883
aF0.665441151790089
aF0.9261538294050202
aF349.0029291729855
aF2.2643227551485704e-05
aF0.029342876281736856
aa(lp599
F0.9761027010493633
aF228.0184142578859
aF318.94122381940946
aF6.58977888113263
aF0.6682910789272417
aF0.9289281541995376
aF355.46772082582055
aF2.3321875581116213e-05
aF0.030327791682192295
aasg10
g558
sg32
I3
sg33
I2
sg34
(lp600
NaNaNaNasg60
(I337
F80000.0
I350
F88750.0
tp601
sbasg60
(I325
F80000.0
I350
F97500.0
tp602
sbasg60
(I300
F80000.0
I350
F115000.0
tp603
sbasg60
(lp604
I250
aF80000.0
aI350
aF150000.0
asbsg32
I1
sg33
I1
sg34
(lp605
g11
a(i__main__
CNode
p606
(dp607
g3
I6
sg4
(lp608
(lp609
F1.5029696524268779
aF161.9991360541038
aF226.87070537858392
aF6.2557001461043695
aF0.6531208680147412
aF0.9149261173387274
aF301.2546454035007
aF1.7794548560022025e-05
aF0.02246210856527878
aa(lp610
F1.3657500846090969
aF178.37578009088836
aF249.7651221811774
aF6.342981558831675
aF0.6554132270210936
aF0.9168147377353398
aF315.86638547580276
aF1.9248241738477613e-05
aF0.024496764747838636
aa(lp611
F1.7731582444688878
aF161.95495577563784
aF226.81098335170222
aF6.212630318437654
aF0.6531914735006509
aF0.9153522698241177
aF301.2363687130386
aF1.7798576248997824e-05
aF0.02247160030174657
aa(lp612
F1.6111464235478934
aF178.3371143601151
aF249.71486024292523
aF6.299947864961813
aF0.6554668927552831
aF0.9171507725574626
aF315.86008374080507
aF1.925213511277871e-05
aF0.02450538280974292
aasg10
g18
sg32
I2
sg33
I1
sg34
(lp613
(i__main__
CNode
p614
(dp615
g3
I25
sg4
(lp616
(lp617
F1.5029696524268779
aF161.9991360541038
aF226.87070537858392
aF6.2557001461043695
aF0.6531208680147412
aF0.9149261173387274
aF301.2546454035007
aF1.7794548560022025e-05
aF0.02246210856527878
aa(lp618
F1.4338081892626975
aF169.8534299556151
aF237.85415747980164
aF6.298611974197622
aF0.6540975913714469
aF0.9156922401172812
aF308.36818810674487
aF1.849888686878479e-05
aF0.02344485952216912
aa(lp619
F1.6380477738945176
aF161.97704776859675
aF226.8408458172866
aF6.233281143345081
aF0.6531561697795972
aF0.9151391343223727
aF301.2455005871058
aF1.7796562151776677e-05
aF0.02246685370722123
aa(lp620
F1.5626388063963623
aF169.8327484538324
aF237.82670813606094
aF6.276202392401534
aF0.6541283475161265
aF0.9158816266397068
aF308.36215975418196
aF1.850086895121689e-05
aF0.0234493844797065
aasg10
g606
sg32
I3
sg33
I2
sg34
(lp621
NaNaNaNasg60
(I250
F97500.0
I262
F106250.0
tp622
sba(i__main__
CNode
p623
(dp624
g3
I26
sg4
(lp625
(lp626
F1.6380477738945176
aF161.97704776859675
aF226.8408458172866
aF6.233281143345081
aF0.6531561697795972
aF0.9151391343223727
aF301.2455005871058
aF1.7796562151776677e-05
aF0.02246685370722123
aa(lp627
F1.5626388063963623
aF169.8327484538324
aF237.82670813606094
aF6.276202392401534
aF0.6541283475161265
aF0.9158816266397068
aF308.36215975418196
aF1.850086895121689e-05
aF0.0234493844797065
aa(lp628
F1.7731582444688878
aF161.95495577563784
aF226.81098335170222
aF6.212630318437654
aF0.6531914735006509
aF0.9153522698241177
aF301.2363687130386
aF1.7798576248997824e-05
aF0.02247160030174657
aa(lp629
F1.6914950463016034
aF169.8120642067118
aF237.79925710535113
aF6.255560993219239
aF0.6541591038375587
aF0.9160710993363982
aF308.35614392905046
aF1.850285144756054e-05
aF0.02345391057437474
aasg10
g606
sg32
I3
sg33
I2
sg34
(lp630
NaNaNaNasg60
(I250
F106250.0
I262
F115000.0
tp631
sba(i__main__
CNode
p632
(dp633
g3
I27
sg4
(lp634
(lp635
F1.5626388063963623
aF169.8327484538324
aF237.82670813606094
aF6.276202392401534
aF0.6541283475161265
aF0.9158816266397068
aF308.36215975418196
aF1.850086895121689e-05
aF0.0234493844797065
aa(lp636
F1.488438300761335
aF178.3564482083075
aF249.73999158101782
aF6.320580618819781
aF0.6554400603525923
aF0.9169827245088731
aF315.86322866790573
aF1.925018825940773e-05
aF0.024501073344073792
aa(lp637
F1.6914950463016034
aF169.8120642067118
aF237.79925710535113
aF6.255560993219239
aF0.6541591038375587
aF0.9160710993363982
aF308.35614392905046
aF1.850285144756054e-05
aF0.02345391057437474
aa(lp638
F1.6111464235478934
aF178.3371143601151
aF249.71486024292523
aF6.299947864961813
aF0.6554668927552831
aF0.9171507725574626
aF315.86008374080507
aF1.925213511277871e-05
aF0.02450538280974292
aasg10
g606
sg32
I3
sg33
I2
sg34
(lp639
NaNaNaNasg60
(I262
F106250.0
I275
F115000.0
tp640
sba(i__main__
CNode
p641
(dp642
g3
I28
sg4
(lp643
(lp644
F1.4338081892626975
aF169.8534299556151
aF237.85415747980164
aF6.298611974197622
aF0.6540975913714469
aF0.9156922401172812
aF308.36818810674487
aF1.849888686878479e-05
aF0.02344485952216912
aa(lp645
F1.3657500846090969
aF178.37578009088836
aF249.7651221811774
aF6.342981558831675
aF0.6554132270210936
aF0.9168147377353398
aF315.86638547580276
aF1.9248241738477613e-05
aF0.024496764747838636
aa(lp646
F1.5626388063963623
aF169.8327484538324
aF237.82670813606094
aF6.276202392401534
aF0.6541283475161265
aF0.9158816266397068
aF308.36215975418196
aF1.850086895121689e-05
aF0.0234493844797065
aa(lp647
F1.488438300761335
aF178.3564482083075
aF249.73999158101782
aF6.320580618819781
aF0.6554400603525923
aF0.9169827245088731
aF315.86322866790573
aF1.925018825940773e-05
aF0.024501073344073792
aasg10
g606
sg32
I3
sg33
I2
sg34
(lp648
NaNaNaNasg60
(I262
F97500.0
I275
F106250.0
tp649
sbasg60
(I250
F97500.0
I275
F115000.0
tp650
sba(i__main__
CNode
p651
(dp652
g3
I7
sg4
(lp653
(lp654
F1.3657500846090969
aF178.37578009088836
aF249.7651221811774
aF6.342981558831675
aF0.6554132270210936
aF0.9168147377353398
aF315.86638547580276
aF1.9248241738477613e-05
aF0.024496764747838636
aa(lp655
F1.251559411094745
aF194.81801396386498
aF272.72082795390656
aF6.422875962492851
aF0.6587204648857959
aF0.9198278116078472
aF329.722359076292
aF2.06516040478662e-05
aF0.026484238734735262
aa(lp656
F1.6111464235478934
aF178.3371143601151
aF249.71486024292523
aF6.299947864961813
aF0.6554668927552831
aF0.9171507725574626
aF315.86008374080507
aF1.925213511277871e-05
aF0.02450538280974292
aa(lp657
F1.4763579718390654
aF194.78373358991112
aF272.67812112571124
aF6.379868604332815
aF0.6587630351930509
aF0.9200995760759202
aF329.7248095589918
aF2.0655357068002164e-05
aF0.026492131393305866
aasg10
g18
sg32
I2
sg33
I1
sg34
(lp658
(i__main__
CNode
p659
(dp660
g3
I29
sg4
(lp661
(lp662
F1.3657500846090969
aF178.37578009088836
aF249.7651221811774
aF6.342981558831675
aF0.6554132270210936
aF0.9168147377353398
aF315.86638547580276
aF1.9248241738477613e-05
aF0.024496764747838636
aa(lp663
F1.3084391528386716
aF186.25821495629728
aF260.77448098859446
aF6.382166528896738
aF0.6568723050200633
aF0.9181216085522343
aF322.60638394561516
aF1.9927868033181278e-05
aF0.025456422527468988
aa(lp664
F1.488438300761335
aF178.3564482083075
aF249.73999158101782
aF6.320580618819781
aF0.6554400603525923
aF0.9169827245088731
aF315.86322866790573
aF1.925018825940773e-05
aF0.024501073344073792
aa(lp665
F1.425958799360291
aF186.23999426356562
aF260.7512634865372
aF6.359772400634134
aF0.6568962062460119
aF0.9182729069027975
aF322.6054934598323
aF1.9929781024375055e-05
aF0.025460549125920724
aasg10
g651
sg32
I3
sg33
I2
sg34
(lp666
NaNaNaNasg60
(I275
F97500.0
I287
F106250.0
tp667
sba(i__main__
CNode
p668
(dp669
g3
I30
sg4
(lp670
(lp671
F1.488438300761335
aF178.3564482083075
aF249.73999158101782
aF6.320580618819781
aF0.6554400603525923
aF0.9169827245088731
aF315.86322866790573
aF1.925018825940773e-05
aF0.024501073344073792
aa(lp672
F1.425958799360291
aF186.23999426356562
aF260.7512634865372
aF6.359772400634134
aF0.6568962062460119
aF0.9182729069027975
aF322.6054934598323
aF1.9929781024375055e-05
aF0.025460549125920724
aa(lp673
F1.6111464235478934
aF178.3371143601151
aF249.71486024292523
aF6.299947864961813
aF0.6554668927552831
aF0.9171507725574626
aF315.86008374080507
aF1.925213511277871e-05
aF0.02450538280974292
aa(lp674
F1.5434941816806973
aF186.22177214821193
aF260.72804587758714
aF6.339146460774003
aF0.6569201059757135
aF0.918424250004363
aF322.60461417033764
aF1.9931694286008523e-05
aF0.025464676396667704
aasg10
g651
sg32
I3
sg33
I2
sg34
(lp675
NaNaNaNasg60
(I275
F106250.0
I287
F115000.0
tp676
sba(i__main__
CNode
p677
(dp678
g3
I31
sg4
(lp679
(lp680
F1.425958799360291
aF186.23999426356562
aF260.7512634865372
aF6.359772400634134
aF0.6568962062460119
aF0.9182729069027975
aF322.6054934598323
aF1.9929781024375055e-05
aF0.025460549125920724
aa(lp681
F1.3639526241451994
aF194.80087426435412
aF272.6994743470277
aF6.400488188371459
aF0.6587417509490898
aF0.9199636779832264
aF329.7235791058465
aF2.0653480450525827e-05
aF0.026488184816237093
aa(lp682
F1.5434941816806973
aF186.22177214821193
aF260.72804587758714
aF6.339146460774003
aF0.6569201059757135
aF0.918424250004363
aF322.60461417033764
aF1.9931694286008523e-05
aF0.025464676396667704
aa(lp683
F1.4763579718390654
aF194.78373358991112
aF272.67812112571124
aF6.379868604332815
aF0.6587630351930509
aF0.9200995760759202
aF329.7248095589918
aF2.0655357068002164e-05
aF0.026492131393305866
aasg10
g651
sg32
I3
sg33
I2
sg34
(lp684
NaNaNaNasg60
(I287
F106250.0
I300
F115000.0
tp685
sba(i__main__
CNode
p686
(dp687
g3
I32
sg4
(lp688
(lp689
F1.3084391528386716
aF186.25821495629728
aF260.77448098859446
aF6.382166528896738
aF0.6568723050200633
aF0.9181216085522343
aF322.60638394561516
aF1.9927868033181278e-05
aF0.025456422527468988
aa(lp690
F1.251559411094745
aF194.81801396386498
aF272.72082795390656
aF6.422875962492851
aF0.6587204648857959
aF0.9198278116078472
aF329.722359076292
aF2.06516040478662e-05
aF0.026484238734735262
aa(lp691
F1.425958799360291
aF186.23999426356562
aF260.7512634865372
aF6.359772400634134
aF0.6568962062460119
aF0.9182729069027975
aF322.6054934598323
aF1.9929781024375055e-05
aF0.025460549125920724
aa(lp692
F1.3639526241451994
aF194.80087426435412
aF272.6994743470277
aF6.400488188371459
aF0.6587417509490898
aF0.9199636779832264
aF329.7235791058465
aF2.0653480450525827e-05
aF0.026488184816237093
aasg10
g651
sg32
I3
sg33
I2
sg34
(lp693
NaNaNaNasg60
(I287
F97500.0
I300
F106250.0
tp694
sbasg60
(I275
F97500.0
I300
F115000.0
tp695
sba(i__main__
CNode
p696
(dp697
g3
I8
sg4
(lp698
(lp699
F1.1204333782311766
aF178.41443795587273
aF249.81538115723976
aF6.394523718355301
aF0.6553595575909421
aF0.9164789480654936
aF315.8727346884071
aF1.9244349688530788e-05
aF0.024488150157624428
aa(lp700
F1.0268094046660616
aF194.85229043458108
aF272.7635363157167
aF6.47439180202825
aF0.6586778873129832
aF0.9195561740914121
aF329.71995025863924
aF2.0647851883215303e-05
aF0.02647634805485789
aa(lp701
F1.3657500846090969
aF178.37578009088836
aF249.7651221811774
aF6.342981558831675
aF0.6554132270210936
aF0.9168147377353398
aF315.86638547580276
aF1.9248241738477613e-05
aF0.024496764747838636
aa(lp702
F1.251559411094745
aF194.81801396386498
aF272.72082795390656
aF6.422875962492851
aF0.6587204648857959
aF0.9198278116078472
aF329.722359076292
aF2.06516040478662e-05
aF0.026484238734735262
aasg10
g18
sg32
I2
sg33
I1
sg34
(lp703
(i__main__
CNode
p704
(dp705
g3
I33
sg4
(lp706
(lp707
F1.1204333782311766
aF178.41443795587273
aF249.81538115723976
aF6.394523718355301
aF0.6553595575909421
aF0.9164789480654936
aF315.8727346884071
aF1.9244349688530788e-05
aF0.024488150157624428
aa(lp708
F1.0734470795145123
aF186.29465207032052
aF260.82091566235675
aF6.433695071670198
aF0.6568244980947209
aF0.9178191461792339
aF322.6081984692104
aF1.992404285758209e-05
aF0.02544817134276442
aa(lp709
F1.2430817766007733
aF178.39511000702146
aF249.7902520407888
aF6.367483637583809
aF0.6553863927656053
aF0.916646812249896
aF315.8695541531009
aF1.9246295548635795e-05
aF0.024492457019531063
aa(lp710
F1.190935245199548
aF186.27643422551304
aF260.79769838133996
aF6.4066617981488205
aF0.656848402301692
aF0.9179703549714682
aF322.6072856184774
aF1.9925955311294328e-05
aF0.025452296600144114
aasg10
g696
sg32
I3
sg33
I2
sg34
(lp711
NaNaNaNasg60
(I275
F80000.0
I287
F88750.0
tp712
sba(i__main__
CNode
p713
(dp714
g3
I34
sg4
(lp715
(lp716
F1.2430817766007733
aF178.39511000702146
aF249.7902520407888
aF6.367483637583809
aF0.6553863927656053
aF0.916646812249896
aF315.8695541531009
aF1.9246295548635795e-05
aF0.024492457019531063
aa(lp717
F1.190935245199548
aF186.27643422551304
aF260.79769838133996
aF6.4066617981488205
aF0.656848402301692
aF0.9179703549714682
aF322.6072856184774
aF1.9925955311294328e-05
aF0.025452296600144114
aa(lp718
F1.3657500846090969
aF178.37578009088836
aF249.7651221811774
aF6.342981558831675
aF0.6554132270210936
aF0.9168147377353398
aF315.86638547580276
aF1.9248241738477613e-05
aF0.024496764747838636
aa(lp719
F1.3084391528386716
aF186.25821495629728
aF260.77448098859446
aF6.382166528896738
aF0.6568723050200633
aF0.9181216085522343
aF322.60638394561516
aF1.9927868033181278e-05
aF0.025456422527468988
aasg10
g696
sg32
I3
sg33
I2
sg34
(lp720
NaNaNaNasg60
(I275
F88750.0
I287
F97500.0
tp721
sba(i__main__
CNode
p722
(dp723
g3
I35
sg4
(lp724
(lp725
F1.190935245199548
aF186.27643422551304
aF260.79769838133996
aF6.4066617981488205
aF0.656848402301692
aF0.9179703549714682
aF322.6072856184774
aF1.9925955311294328e-05
aF0.025452296600144114
aa(lp726
F1.13917833662558
aF194.83515268756616
aF272.7421819441889
aF6.447364879284881
aF0.6586991770061129
aF0.919691976970388
aF329.72114946299945
aF2.064972785907772e-05
aF0.02648029314790846
aa(lp727
F1.3084391528386716
aF186.25821495629728
aF260.77448098859446
aF6.382166528896738
aF0.6568723050200633
aF0.9181216085522343
aF322.60638394561516
aF1.9927868033181278e-05
aF0.025456422527468988
aa(lp728
F1.251559411094745
aF194.81801396386498
aF272.72082795390656
aF6.422875962492851
aF0.6587204648857959
aF0.9198278116078472
aF329.722359076292
aF2.06516040478662e-05
aF0.026484238734735262
aasg10
g696
sg32
I3
sg33
I2
sg34
(lp729
NaNaNaNasg60
(I287
F88750.0
I300
F97500.0
tp730
sba(i__main__
CNode
p731
(dp732
g3
I36
sg4
(lp733
(lp734
F1.0734470795145123
aF186.29465207032052
aF260.82091566235675
aF6.433695071670198
aF0.6568244980947209
aF0.9178191461792339
aF322.6081984692104
aF1.992404285758209e-05
aF0.02544817134276442
aa(lp735
F1.0268094046660616
aF194.85229043458108
aF272.7635363157167
aF6.47439180202825
aF0.6586778873129832
aF0.9195561740914121
aF329.71995025863924
aF2.0647851883215303e-05
aF0.02647634805485789
aa(lp736
F1.190935245199548
aF186.27643422551304
aF260.79769838133996
aF6.4066617981488205
aF0.656848402301692
aF0.9179703549714682
aF322.6072856184774
aF1.9925955311294328e-05
aF0.025452296600144114
aa(lp737
F1.13917833662558
aF194.83515268756616
aF272.7421819441889
aF6.447364879284881
aF0.6586991770061129
aF0.919691976970388
aF329.72114946299945
aF2.064972785907772e-05
aF0.02648029314790846
aasg10
g696
sg32
I3
sg33
I2
sg34
(lp738
NaNaNaNasg60
(I287
F80000.0
I300
F88750.0
tp739
sbasg60
(I275
F80000.0
I300
F97500.0
tp740
sbasg60
(I250
F80000.0
I300
F115000.0
tp741
sbsg32
I2
sg33
I1
sg34
(lp742
g1
a(i__main__
CNode
p743
(dp744
g3
I22
sg4
(lp745
(lp746
F1.367923873507618
aF162.02122063197498
aF226.90056203306338
aF6.2802202793021795
aF0.6530855682132413
aF0.914713218843281
aF301.26380314446374
aF1.7792535471704217e-05
aF0.02245736487322035
aa(lp747
F1.3050031933056034
aF169.87410871143453
aF237.88160513387174
aF6.3231226911934995
aF0.6540668354095678
aF0.9155029397674208
aF308.37422897237474
aF1.8496905198604794e-05
aF0.023440335699744335
aa(lp748
F1.5029696524268779
aF161.9991360541038
aF226.87070537858392
aF6.2557001461043695
aF0.6531208680147412
aF0.9149261173387274
aF301.2546454035007
aF1.7794548560022025e-05
aF0.02246210856527878
aa(lp749
F1.4338081892626975
aF169.8534299556151
aF237.85415747980164
aF6.298611974197622
aF0.6540975913714469
aF0.9156922401172812
aF308.36818810674487
aF1.849888686878479e-05
aF0.02344485952216912
aasg10
g11
sg32
I3
sg33
I2
sg34
(lp750
NaNaNaNasg60
(I250
F88750.0
I262
F97500.0
tp751
sba(i__main__
CNode
p752
(dp753
g3
I23
sg4
(lp754
(lp755
F1.3050031933056034
aF169.87410871143453
aF237.88160513387174
aF6.3231226911934995
aF0.6540668354095678
aF0.9155029397674208
aF308.37422897237474
aF1.8496905198604794e-05
aF0.023440335699744335
aa(lp756
F1.2430817766007733
aF178.39511000702146
aF249.7902520407888
aF6.367483637583809
aF0.6553863927656053
aF0.916646812249896
aF315.8695541531009
aF1.9246295548635795e-05
aF0.024492457019531063
aa(lp757
F1.4338081892626975
aF169.8534299556151
aF237.85415747980164
aF6.298611974197622
aF0.6540975913714469
aF0.9156922401172812
aF308.36818810674487
aF1.849888686878479e-05
aF0.02344485952216912
aa(lp758
F1.3657500846090969
aF178.37578009088836
aF249.7651221811774
aF6.342981558831675
aF0.6554132270210936
aF0.9168147377353398
aF315.86638547580276
aF1.9248241738477613e-05
aF0.024496764747838636
aasg10
g11
sg32
I3
sg33
I2
sg34
(lp759
NaNaNaNasg60
(I262
F88750.0
I275
F97500.0
tp760
sba(i__main__
CNode
p761
(dp762
g3
I24
sg4
(lp763
(lp764
F1.1762238169125685
aF169.89478472066773
aF237.9090510955736
aF6.350171406667967
aF0.6540360796365317
aF0.9153137255883204
aF308.3802823367124
aF1.84949239390191e-05
aF0.02343581301038386
aa(lp765
F1.1204333782311766
aF178.41443795587273
aF249.81538115723976
aF6.394523718355301
aF0.6553595575909421
aF0.9164789480654936
aF315.8727346884071
aF1.9244349688530788e-05
aF0.024488150157624428
aa(lp766
F1.3050031933056034
aF169.87410871143453
aF237.88160513387174
aF6.3231226911934995
aF0.6540668354095678
aF0.9155029397674208
aF308.37422897237474
aF1.8496905198604794e-05
aF0.023440335699744335
aa(lp767
F1.2430817766007733
aF178.39511000702146
aF249.7902520407888
aF6.367483637583809
aF0.6553863927656053
aF0.916646812249896
aF315.8695541531009
aF1.9246295548635795e-05
aF0.024492457019531063
aasg10
g11
sg32
I3
sg33
I2
sg34
(lp768
NaNaNaNasg60
(I262
F80000.0
I275
F88750.0
tp769
sbasg60
(I250
F80000.0
I275
F97500.0
tp770
sbsg32
I3
sg33
I2
sg34
(lp771
NaNaNaNasg60
(I250
F80000.0
I262
F88750.0
tp772
sbag743
ag752
ag761
ag614
ag623
ag632
ag641
ag659
ag668
ag677
ag686
ag704
ag713
ag722
ag731
ag52
ag62
ag71
ag80
ag98
ag107
ag116
ag125
ag143
ag152
ag161
ag170
ag188
ag197
ag206
ag215
ag242
ag251
ag260
ag269
ag287
ag296
ag305
ag314
ag332
ag341
ag350
ag359
ag377
ag386
ag395
ag404
ag431
ag440
ag449
ag458
ag476
ag485
ag494
ag503
ag521
ag530
ag539
ag548
ag566
ag575
ag584
ag593
a.